Component: ARM Compiler 6.16 Tool: armlink [5dfeaa00]

==============================================================================

Section Cross References

    startup_stm32g0b1xx.o(RESET) refers to startup_stm32g0b1xx.o(STACK) for __initial_sp
    startup_stm32g0b1xx.o(RESET) refers to startup_stm32g0b1xx.o(.text) for Reset_Handler
    startup_stm32g0b1xx.o(RESET) refers to stm32g0xx_it.o(.text.NMI_Handler) for NMI_Handler
    startup_stm32g0b1xx.o(RESET) refers to stm32g0xx_it.o(.text.HardFault_Handler) for HardFault_Handler
    startup_stm32g0b1xx.o(RESET) refers to stm32g0xx_it.o(.text.SVC_Handler) for SVC_Handler
    startup_stm32g0b1xx.o(RESET) refers to stm32g0xx_it.o(.text.PendSV_Handler) for PendSV_Handler
    startup_stm32g0b1xx.o(RESET) refers to stm32g0xx_it.o(.text.SysTick_Handler) for SysTick_Handler
    startup_stm32g0b1xx.o(RESET) refers to stm32g0xx_it.o(.text.EXTI2_3_IRQHandler) for EXTI2_3_IRQHandler
    startup_stm32g0b1xx.o(RESET) refers to stm32g0xx_it.o(.text.EXTI4_15_IRQHandler) for EXTI4_15_IRQHandler
    startup_stm32g0b1xx.o(RESET) refers to stm32g0xx_it.o(.text.USART1_IRQHandler) for USART1_IRQHandler
    startup_stm32g0b1xx.o(.text) refers to system_stm32g0xx.o(.text.SystemInit) for SystemInit
    startup_stm32g0b1xx.o(.text) refers to entry.o(.ARM.Collect$$$$00000000) for __main
    main.o(.text.main) refers to stm32g0xx_hal.o(.text.HAL_Init) for HAL_Init
    main.o(.text.main) refers to main.o(.text.SystemClock_Config) for SystemClock_Config
    main.o(.text.main) refers to gpio.o(.text.MX_GPIO_Init) for MX_GPIO_Init
    main.o(.text.main) refers to usart.o(.text.MX_USART1_UART_Init) for MX_USART1_UART_Init
    main.o(.text.main) refers to iwdg.o(.text.MX_IWDG_Init) for MX_IWDG_Init
    main.o(.text.main) refers to stm32g0xx_hal_uart.o(.text.HAL_UART_Receive_IT) for HAL_UART_Receive_IT
    main.o(.text.main) refers to stm32g0xx_hal_gpio.o(.text.HAL_GPIO_WritePin) for HAL_GPIO_WritePin
    main.o(.text.main) refers to stm32g0xx_hal.o(.text.HAL_Delay) for HAL_Delay
    main.o(.text.main) refers to stm32g0xx_hal_iwdg.o(.text.HAL_IWDG_Refresh) for HAL_IWDG_Refresh
    main.o(.text.main) refers to debug.o(.text.os_time_get) for os_time_get
    main.o(.text.main) refers to uidiv_div0.o(.text) for __aeabi_uidiv
    main.o(.text.main) refers to printf6.o(i.__0printf$6) for __2printf
    main.o(.text.main) refers to stm32g0xx_hal.o(.text.HAL_GetTick) for HAL_GetTick
    main.o(.text.main) refers to puts.o(i.puts) for puts
    main.o(.text.main) refers to stm32g0xx_hal_gpio.o(.text.HAL_GPIO_TogglePin) for HAL_GPIO_TogglePin
    main.o(.text.main) refers to iwdg.o(.bss.hiwdg) for hiwdg
    main.o(.text.main) refers to usart.o(.bss.huart1) for huart1
    main.o(.text.main) refers to debug.o(.bss.dbg_rxdata) for dbg_rxdata
    main.o(.text.main) refers to debug.o(.data.dbg_level) for dbg_level
    main.o(.text.main) refers to main.o(.rodata.str1.1) for [Anonymous Symbol]
    main.o(.ARM.exidx.text.main) refers to main.o(.text.main) for [Anonymous Symbol]
    main.o(.text.SystemClock_Config) refers to memseta.o(.text) for __aeabi_memclr4
    main.o(.text.SystemClock_Config) refers to stm32g0xx_hal_pwr_ex.o(.text.HAL_PWREx_ControlVoltageScaling) for HAL_PWREx_ControlVoltageScaling
    main.o(.text.SystemClock_Config) refers to stm32g0xx_hal_rcc.o(.text.HAL_RCC_OscConfig) for HAL_RCC_OscConfig
    main.o(.text.SystemClock_Config) refers to stm32g0xx_hal_rcc.o(.text.HAL_RCC_ClockConfig) for HAL_RCC_ClockConfig
    main.o(.text.SystemClock_Config) refers to stm32g0xx_hal_rcc_ex.o(.text.HAL_RCCEx_PeriphCLKConfig) for HAL_RCCEx_PeriphCLKConfig
    main.o(.text.SystemClock_Config) refers to main.o(.text.Error_Handler) for Error_Handler
    main.o(.ARM.exidx.text.SystemClock_Config) refers to main.o(.text.SystemClock_Config) for [Anonymous Symbol]
    main.o(.ARM.exidx.text.Error_Handler) refers to main.o(.text.Error_Handler) for [Anonymous Symbol]
    main.o(.text.HAL_GPIO_EXTI_Falling_Callback) refers to debug.o(.text.os_time_get) for os_time_get
    main.o(.text.HAL_GPIO_EXTI_Falling_Callback) refers to uidiv_div0.o(.text) for __aeabi_uidiv
    main.o(.text.HAL_GPIO_EXTI_Falling_Callback) refers to printf6.o(i.__0printf$6) for __2printf
    main.o(.text.HAL_GPIO_EXTI_Falling_Callback) refers to puts.o(i.puts) for puts
    main.o(.text.HAL_GPIO_EXTI_Falling_Callback) refers to debug.o(.data.dbg_level) for dbg_level
    main.o(.text.HAL_GPIO_EXTI_Falling_Callback) refers to main.o(.rodata.str1.1) for [Anonymous Symbol]
    main.o(.text.HAL_GPIO_EXTI_Falling_Callback) refers to powermanagement.o(.data.wakeFlag) for wakeFlag
    main.o(.ARM.exidx.text.HAL_GPIO_EXTI_Falling_Callback) refers to main.o(.text.HAL_GPIO_EXTI_Falling_Callback) for [Anonymous Symbol]
    gpio.o(.text.MX_GPIO_Init) refers to stm32g0xx_hal_gpio.o(.text.HAL_GPIO_WritePin) for HAL_GPIO_WritePin
    gpio.o(.text.MX_GPIO_Init) refers to stm32g0xx_hal_gpio.o(.text.HAL_GPIO_Init) for HAL_GPIO_Init
    gpio.o(.text.MX_GPIO_Init) refers to stm32g0xx_hal_cortex.o(.text.HAL_NVIC_SetPriority) for HAL_NVIC_SetPriority
    gpio.o(.text.MX_GPIO_Init) refers to stm32g0xx_hal_cortex.o(.text.HAL_NVIC_EnableIRQ) for HAL_NVIC_EnableIRQ
    gpio.o(.ARM.exidx.text.MX_GPIO_Init) refers to gpio.o(.text.MX_GPIO_Init) for [Anonymous Symbol]
    iwdg.o(.text.MX_IWDG_Init) refers to stm32g0xx_hal_iwdg.o(.text.HAL_IWDG_Init) for HAL_IWDG_Init
    iwdg.o(.text.MX_IWDG_Init) refers to main.o(.text.Error_Handler) for Error_Handler
    iwdg.o(.text.MX_IWDG_Init) refers to iwdg.o(.bss.hiwdg) for hiwdg
    iwdg.o(.ARM.exidx.text.MX_IWDG_Init) refers to iwdg.o(.text.MX_IWDG_Init) for [Anonymous Symbol]
    usart.o(.text.MX_USART1_UART_Init) refers to stm32g0xx_hal_uart.o(.text.HAL_UART_Init) for HAL_UART_Init
    usart.o(.text.MX_USART1_UART_Init) refers to main.o(.text.Error_Handler) for Error_Handler
    usart.o(.text.MX_USART1_UART_Init) refers to stm32g0xx_hal_uart_ex.o(.text.HAL_UARTEx_SetTxFifoThreshold) for HAL_UARTEx_SetTxFifoThreshold
    usart.o(.text.MX_USART1_UART_Init) refers to stm32g0xx_hal_uart_ex.o(.text.HAL_UARTEx_SetRxFifoThreshold) for HAL_UARTEx_SetRxFifoThreshold
    usart.o(.text.MX_USART1_UART_Init) refers to stm32g0xx_hal_uart_ex.o(.text.HAL_UARTEx_DisableFifoMode) for HAL_UARTEx_DisableFifoMode
    usart.o(.text.MX_USART1_UART_Init) refers to usart.o(.bss.huart1) for huart1
    usart.o(.ARM.exidx.text.MX_USART1_UART_Init) refers to usart.o(.text.MX_USART1_UART_Init) for [Anonymous Symbol]
    usart.o(.text.HAL_UART_MspInit) refers to stm32g0xx_hal_gpio.o(.text.HAL_GPIO_Init) for HAL_GPIO_Init
    usart.o(.text.HAL_UART_MspInit) refers to stm32g0xx_hal_cortex.o(.text.HAL_NVIC_SetPriority) for HAL_NVIC_SetPriority
    usart.o(.text.HAL_UART_MspInit) refers to stm32g0xx_hal_cortex.o(.text.HAL_NVIC_EnableIRQ) for HAL_NVIC_EnableIRQ
    usart.o(.ARM.exidx.text.HAL_UART_MspInit) refers to usart.o(.text.HAL_UART_MspInit) for [Anonymous Symbol]
    usart.o(.text.HAL_UART_MspDeInit) refers to stm32g0xx_hal_gpio.o(.text.HAL_GPIO_DeInit) for HAL_GPIO_DeInit
    usart.o(.text.HAL_UART_MspDeInit) refers to stm32g0xx_hal_cortex.o(.text.HAL_NVIC_DisableIRQ) for HAL_NVIC_DisableIRQ
    usart.o(.ARM.exidx.text.HAL_UART_MspDeInit) refers to usart.o(.text.HAL_UART_MspDeInit) for [Anonymous Symbol]
    stm32g0xx_it.o(.ARM.exidx.text.NMI_Handler) refers to stm32g0xx_it.o(.text.NMI_Handler) for [Anonymous Symbol]
    stm32g0xx_it.o(.ARM.exidx.text.HardFault_Handler) refers to stm32g0xx_it.o(.text.HardFault_Handler) for [Anonymous Symbol]
    stm32g0xx_it.o(.ARM.exidx.text.SVC_Handler) refers to stm32g0xx_it.o(.text.SVC_Handler) for [Anonymous Symbol]
    stm32g0xx_it.o(.ARM.exidx.text.PendSV_Handler) refers to stm32g0xx_it.o(.text.PendSV_Handler) for [Anonymous Symbol]
    stm32g0xx_it.o(.text.SysTick_Handler) refers to stm32g0xx_hal.o(.text.HAL_IncTick) for HAL_IncTick
    stm32g0xx_it.o(.ARM.exidx.text.SysTick_Handler) refers to stm32g0xx_it.o(.text.SysTick_Handler) for [Anonymous Symbol]
    stm32g0xx_it.o(.text.EXTI2_3_IRQHandler) refers to stm32g0xx_hal_gpio.o(.text.HAL_GPIO_EXTI_IRQHandler) for HAL_GPIO_EXTI_IRQHandler
    stm32g0xx_it.o(.ARM.exidx.text.EXTI2_3_IRQHandler) refers to stm32g0xx_it.o(.text.EXTI2_3_IRQHandler) for [Anonymous Symbol]
    stm32g0xx_it.o(.text.EXTI4_15_IRQHandler) refers to stm32g0xx_hal_gpio.o(.text.HAL_GPIO_EXTI_IRQHandler) for HAL_GPIO_EXTI_IRQHandler
    stm32g0xx_it.o(.ARM.exidx.text.EXTI4_15_IRQHandler) refers to stm32g0xx_it.o(.text.EXTI4_15_IRQHandler) for [Anonymous Symbol]
    stm32g0xx_it.o(.text.USART1_IRQHandler) refers to stm32g0xx_hal_uart.o(.text.HAL_UART_IRQHandler) for HAL_UART_IRQHandler
    stm32g0xx_it.o(.text.USART1_IRQHandler) refers to usart.o(.bss.huart1) for huart1
    stm32g0xx_it.o(.ARM.exidx.text.USART1_IRQHandler) refers to stm32g0xx_it.o(.text.USART1_IRQHandler) for [Anonymous Symbol]
    stm32g0xx_hal_msp.o(.text.HAL_MspInit) refers to stm32g0xx_hal.o(.text.HAL_SYSCFG_StrobeDBattpinsConfig) for HAL_SYSCFG_StrobeDBattpinsConfig
    stm32g0xx_hal_msp.o(.ARM.exidx.text.HAL_MspInit) refers to stm32g0xx_hal_msp.o(.text.HAL_MspInit) for [Anonymous Symbol]
    stm32g0xx_hal_iwdg.o(.text.HAL_IWDG_Init) refers to stm32g0xx_hal.o(.text.HAL_GetTick) for HAL_GetTick
    stm32g0xx_hal_iwdg.o(.ARM.exidx.text.HAL_IWDG_Init) refers to stm32g0xx_hal_iwdg.o(.text.HAL_IWDG_Init) for [Anonymous Symbol]
    stm32g0xx_hal_iwdg.o(.ARM.exidx.text.HAL_IWDG_Refresh) refers to stm32g0xx_hal_iwdg.o(.text.HAL_IWDG_Refresh) for [Anonymous Symbol]
    stm32g0xx_hal_rcc.o(.text.HAL_RCC_DeInit) refers to stm32g0xx_hal.o(.text.HAL_GetTick) for HAL_GetTick
    stm32g0xx_hal_rcc.o(.text.HAL_RCC_DeInit) refers to stm32g0xx_hal.o(.text.HAL_InitTick) for HAL_InitTick
    stm32g0xx_hal_rcc.o(.text.HAL_RCC_DeInit) refers to system_stm32g0xx.o(.data.SystemCoreClock) for SystemCoreClock
    stm32g0xx_hal_rcc.o(.text.HAL_RCC_DeInit) refers to stm32g0xx_hal.o(.data.uwTickPrio) for uwTickPrio
    stm32g0xx_hal_rcc.o(.ARM.exidx.text.HAL_RCC_DeInit) refers to stm32g0xx_hal_rcc.o(.text.HAL_RCC_DeInit) for [Anonymous Symbol]
    stm32g0xx_hal_rcc.o(.text.HAL_RCC_OscConfig) refers to stm32g0xx_hal.o(.text.HAL_GetTick) for HAL_GetTick
    stm32g0xx_hal_rcc.o(.text.HAL_RCC_OscConfig) refers to stm32g0xx_hal.o(.text.HAL_InitTick) for HAL_InitTick
    stm32g0xx_hal_rcc.o(.text.HAL_RCC_OscConfig) refers to system_stm32g0xx.o(.data.SystemCoreClock) for SystemCoreClock
    stm32g0xx_hal_rcc.o(.text.HAL_RCC_OscConfig) refers to stm32g0xx_hal.o(.data.uwTickPrio) for uwTickPrio
    stm32g0xx_hal_rcc.o(.ARM.exidx.text.HAL_RCC_OscConfig) refers to stm32g0xx_hal_rcc.o(.text.HAL_RCC_OscConfig) for [Anonymous Symbol]
    stm32g0xx_hal_rcc.o(.text.HAL_RCC_ClockConfig) refers to stm32g0xx_hal.o(.text.HAL_GetTick) for HAL_GetTick
    stm32g0xx_hal_rcc.o(.text.HAL_RCC_ClockConfig) refers to stm32g0xx_hal_rcc.o(.text.HAL_RCC_GetSysClockFreq) for HAL_RCC_GetSysClockFreq
    stm32g0xx_hal_rcc.o(.text.HAL_RCC_ClockConfig) refers to stm32g0xx_hal.o(.text.HAL_InitTick) for HAL_InitTick
    stm32g0xx_hal_rcc.o(.text.HAL_RCC_ClockConfig) refers to system_stm32g0xx.o(.rodata.AHBPrescTable) for AHBPrescTable
    stm32g0xx_hal_rcc.o(.text.HAL_RCC_ClockConfig) refers to system_stm32g0xx.o(.data.SystemCoreClock) for SystemCoreClock
    stm32g0xx_hal_rcc.o(.text.HAL_RCC_ClockConfig) refers to stm32g0xx_hal.o(.data.uwTickPrio) for uwTickPrio
    stm32g0xx_hal_rcc.o(.ARM.exidx.text.HAL_RCC_ClockConfig) refers to stm32g0xx_hal_rcc.o(.text.HAL_RCC_ClockConfig) for [Anonymous Symbol]
    stm32g0xx_hal_rcc.o(.text.HAL_RCC_GetSysClockFreq) refers to uidiv_div0.o(.text) for __aeabi_uidiv
    stm32g0xx_hal_rcc.o(.ARM.exidx.text.HAL_RCC_GetSysClockFreq) refers to stm32g0xx_hal_rcc.o(.text.HAL_RCC_GetSysClockFreq) for [Anonymous Symbol]
    stm32g0xx_hal_rcc.o(.text.HAL_RCC_MCOConfig) refers to stm32g0xx_hal_gpio.o(.text.HAL_GPIO_Init) for HAL_GPIO_Init
    stm32g0xx_hal_rcc.o(.ARM.exidx.text.HAL_RCC_MCOConfig) refers to stm32g0xx_hal_rcc.o(.text.HAL_RCC_MCOConfig) for [Anonymous Symbol]
    stm32g0xx_hal_rcc.o(.text.HAL_RCC_GetHCLKFreq) refers to system_stm32g0xx.o(.data.SystemCoreClock) for SystemCoreClock
    stm32g0xx_hal_rcc.o(.ARM.exidx.text.HAL_RCC_GetHCLKFreq) refers to stm32g0xx_hal_rcc.o(.text.HAL_RCC_GetHCLKFreq) for [Anonymous Symbol]
    stm32g0xx_hal_rcc.o(.text.HAL_RCC_GetPCLK1Freq) refers to stm32g0xx_hal_rcc.o(.text.HAL_RCC_GetHCLKFreq) for HAL_RCC_GetHCLKFreq
    stm32g0xx_hal_rcc.o(.text.HAL_RCC_GetPCLK1Freq) refers to stm32g0xx_hal_rcc.o(.text.LL_RCC_GetAPB1Prescaler) for LL_RCC_GetAPB1Prescaler
    stm32g0xx_hal_rcc.o(.text.HAL_RCC_GetPCLK1Freq) refers to system_stm32g0xx.o(.rodata.APBPrescTable) for APBPrescTable
    stm32g0xx_hal_rcc.o(.ARM.exidx.text.HAL_RCC_GetPCLK1Freq) refers to stm32g0xx_hal_rcc.o(.text.HAL_RCC_GetPCLK1Freq) for [Anonymous Symbol]
    stm32g0xx_hal_rcc.o(.ARM.exidx.text.LL_RCC_GetAPB1Prescaler) refers to stm32g0xx_hal_rcc.o(.text.LL_RCC_GetAPB1Prescaler) for [Anonymous Symbol]
    stm32g0xx_hal_rcc.o(.ARM.exidx.text.HAL_RCC_GetOscConfig) refers to stm32g0xx_hal_rcc.o(.text.HAL_RCC_GetOscConfig) for [Anonymous Symbol]
    stm32g0xx_hal_rcc.o(.ARM.exidx.text.HAL_RCC_GetClockConfig) refers to stm32g0xx_hal_rcc.o(.text.HAL_RCC_GetClockConfig) for [Anonymous Symbol]
    stm32g0xx_hal_rcc.o(.ARM.exidx.text.HAL_RCC_EnableCSS) refers to stm32g0xx_hal_rcc.o(.text.HAL_RCC_EnableCSS) for [Anonymous Symbol]
    stm32g0xx_hal_rcc.o(.ARM.exidx.text.HAL_RCC_EnableLSECSS) refers to stm32g0xx_hal_rcc.o(.text.HAL_RCC_EnableLSECSS) for [Anonymous Symbol]
    stm32g0xx_hal_rcc.o(.ARM.exidx.text.HAL_RCC_DisableLSECSS) refers to stm32g0xx_hal_rcc.o(.text.HAL_RCC_DisableLSECSS) for [Anonymous Symbol]
    stm32g0xx_hal_rcc.o(.text.HAL_RCC_NMI_IRQHandler) refers to stm32g0xx_hal_rcc.o(.text.HAL_RCC_CSSCallback) for HAL_RCC_CSSCallback
    stm32g0xx_hal_rcc.o(.text.HAL_RCC_NMI_IRQHandler) refers to stm32g0xx_hal_rcc.o(.text.HAL_RCC_LSECSSCallback) for HAL_RCC_LSECSSCallback
    stm32g0xx_hal_rcc.o(.ARM.exidx.text.HAL_RCC_NMI_IRQHandler) refers to stm32g0xx_hal_rcc.o(.text.HAL_RCC_NMI_IRQHandler) for [Anonymous Symbol]
    stm32g0xx_hal_rcc.o(.ARM.exidx.text.HAL_RCC_CSSCallback) refers to stm32g0xx_hal_rcc.o(.text.HAL_RCC_CSSCallback) for [Anonymous Symbol]
    stm32g0xx_hal_rcc.o(.ARM.exidx.text.HAL_RCC_LSECSSCallback) refers to stm32g0xx_hal_rcc.o(.text.HAL_RCC_LSECSSCallback) for [Anonymous Symbol]
    stm32g0xx_hal_rcc_ex.o(.text.HAL_RCCEx_PeriphCLKConfig) refers to stm32g0xx_hal.o(.text.HAL_GetTick) for HAL_GetTick
    stm32g0xx_hal_rcc_ex.o(.ARM.exidx.text.HAL_RCCEx_PeriphCLKConfig) refers to stm32g0xx_hal_rcc_ex.o(.text.HAL_RCCEx_PeriphCLKConfig) for [Anonymous Symbol]
    stm32g0xx_hal_rcc_ex.o(.ARM.exidx.text.HAL_RCCEx_GetPeriphCLKConfig) refers to stm32g0xx_hal_rcc_ex.o(.text.HAL_RCCEx_GetPeriphCLKConfig) for [Anonymous Symbol]
    stm32g0xx_hal_rcc_ex.o(.text.HAL_RCCEx_GetPeriphCLKFreq) refers to uidiv_div0.o(.text) for __aeabi_uidiv
    stm32g0xx_hal_rcc_ex.o(.text.HAL_RCCEx_GetPeriphCLKFreq) refers to stm32g0xx_hal_rcc.o(.text.HAL_RCC_GetPCLK1Freq) for HAL_RCC_GetPCLK1Freq
    stm32g0xx_hal_rcc_ex.o(.text.HAL_RCCEx_GetPeriphCLKFreq) refers to stm32g0xx_hal_rcc.o(.text.HAL_RCC_GetSysClockFreq) for HAL_RCC_GetSysClockFreq
    stm32g0xx_hal_rcc_ex.o(.ARM.exidx.text.HAL_RCCEx_GetPeriphCLKFreq) refers to stm32g0xx_hal_rcc_ex.o(.text.HAL_RCCEx_GetPeriphCLKFreq) for [Anonymous Symbol]
    stm32g0xx_hal_rcc_ex.o(.text.HAL_RCCEx_EnableLSCO) refers to stm32g0xx_hal_gpio.o(.text.HAL_GPIO_Init) for HAL_GPIO_Init
    stm32g0xx_hal_rcc_ex.o(.text.HAL_RCCEx_EnableLSCO) refers to stm32g0xx_hal_pwr.o(.text.HAL_PWR_EnableBkUpAccess) for HAL_PWR_EnableBkUpAccess
    stm32g0xx_hal_rcc_ex.o(.text.HAL_RCCEx_EnableLSCO) refers to stm32g0xx_hal_pwr.o(.text.HAL_PWR_DisableBkUpAccess) for HAL_PWR_DisableBkUpAccess
    stm32g0xx_hal_rcc_ex.o(.ARM.exidx.text.HAL_RCCEx_EnableLSCO) refers to stm32g0xx_hal_rcc_ex.o(.text.HAL_RCCEx_EnableLSCO) for [Anonymous Symbol]
    stm32g0xx_hal_rcc_ex.o(.text.HAL_RCCEx_DisableLSCO) refers to stm32g0xx_hal_pwr.o(.text.HAL_PWR_EnableBkUpAccess) for HAL_PWR_EnableBkUpAccess
    stm32g0xx_hal_rcc_ex.o(.text.HAL_RCCEx_DisableLSCO) refers to stm32g0xx_hal_pwr.o(.text.HAL_PWR_DisableBkUpAccess) for HAL_PWR_DisableBkUpAccess
    stm32g0xx_hal_rcc_ex.o(.ARM.exidx.text.HAL_RCCEx_DisableLSCO) refers to stm32g0xx_hal_rcc_ex.o(.text.HAL_RCCEx_DisableLSCO) for [Anonymous Symbol]
    stm32g0xx_hal_rcc_ex.o(.ARM.exidx.text.HAL_RCCEx_CRSConfig) refers to stm32g0xx_hal_rcc_ex.o(.text.HAL_RCCEx_CRSConfig) for [Anonymous Symbol]
    stm32g0xx_hal_rcc_ex.o(.ARM.exidx.text.HAL_RCCEx_CRSSoftwareSynchronizationGenerate) refers to stm32g0xx_hal_rcc_ex.o(.text.HAL_RCCEx_CRSSoftwareSynchronizationGenerate) for [Anonymous Symbol]
    stm32g0xx_hal_rcc_ex.o(.ARM.exidx.text.HAL_RCCEx_CRSGetSynchronizationInfo) refers to stm32g0xx_hal_rcc_ex.o(.text.HAL_RCCEx_CRSGetSynchronizationInfo) for [Anonymous Symbol]
    stm32g0xx_hal_rcc_ex.o(.text.HAL_RCCEx_CRSWaitSynchronization) refers to stm32g0xx_hal.o(.text.HAL_GetTick) for HAL_GetTick
    stm32g0xx_hal_rcc_ex.o(.ARM.exidx.text.HAL_RCCEx_CRSWaitSynchronization) refers to stm32g0xx_hal_rcc_ex.o(.text.HAL_RCCEx_CRSWaitSynchronization) for [Anonymous Symbol]
    stm32g0xx_hal_rcc_ex.o(.text.HAL_RCCEx_CRS_IRQHandler) refers to stm32g0xx_hal_rcc_ex.o(.text.HAL_RCCEx_CRS_ErrorCallback) for HAL_RCCEx_CRS_ErrorCallback
    stm32g0xx_hal_rcc_ex.o(.text.HAL_RCCEx_CRS_IRQHandler) refers to stm32g0xx_hal_rcc_ex.o(.text.HAL_RCCEx_CRS_SyncOkCallback) for HAL_RCCEx_CRS_SyncOkCallback
    stm32g0xx_hal_rcc_ex.o(.text.HAL_RCCEx_CRS_IRQHandler) refers to stm32g0xx_hal_rcc_ex.o(.text.HAL_RCCEx_CRS_SyncWarnCallback) for HAL_RCCEx_CRS_SyncWarnCallback
    stm32g0xx_hal_rcc_ex.o(.text.HAL_RCCEx_CRS_IRQHandler) refers to stm32g0xx_hal_rcc_ex.o(.text.HAL_RCCEx_CRS_ExpectedSyncCallback) for HAL_RCCEx_CRS_ExpectedSyncCallback
    stm32g0xx_hal_rcc_ex.o(.ARM.exidx.text.HAL_RCCEx_CRS_IRQHandler) refers to stm32g0xx_hal_rcc_ex.o(.text.HAL_RCCEx_CRS_IRQHandler) for [Anonymous Symbol]
    stm32g0xx_hal_rcc_ex.o(.ARM.exidx.text.HAL_RCCEx_CRS_SyncOkCallback) refers to stm32g0xx_hal_rcc_ex.o(.text.HAL_RCCEx_CRS_SyncOkCallback) for [Anonymous Symbol]
    stm32g0xx_hal_rcc_ex.o(.ARM.exidx.text.HAL_RCCEx_CRS_SyncWarnCallback) refers to stm32g0xx_hal_rcc_ex.o(.text.HAL_RCCEx_CRS_SyncWarnCallback) for [Anonymous Symbol]
    stm32g0xx_hal_rcc_ex.o(.ARM.exidx.text.HAL_RCCEx_CRS_ExpectedSyncCallback) refers to stm32g0xx_hal_rcc_ex.o(.text.HAL_RCCEx_CRS_ExpectedSyncCallback) for [Anonymous Symbol]
    stm32g0xx_hal_rcc_ex.o(.ARM.exidx.text.HAL_RCCEx_CRS_ErrorCallback) refers to stm32g0xx_hal_rcc_ex.o(.text.HAL_RCCEx_CRS_ErrorCallback) for [Anonymous Symbol]
    stm32g0xx_hal_flash.o(.text.HAL_FLASH_Program) refers to stm32g0xx_hal_flash.o(.text.FLASH_WaitForLastOperation) for FLASH_WaitForLastOperation
    stm32g0xx_hal_flash.o(.text.HAL_FLASH_Program) refers to stm32g0xx_hal_flash.o(.text.FLASH_Program_DoubleWord) for FLASH_Program_DoubleWord
    stm32g0xx_hal_flash.o(.text.HAL_FLASH_Program) refers to stm32g0xx_hal_flash.o(.text.FLASH_Program_Fast) for FLASH_Program_Fast
    stm32g0xx_hal_flash.o(.text.HAL_FLASH_Program) refers to stm32g0xx_hal_flash.o(.bss.pFlash) for pFlash
    stm32g0xx_hal_flash.o(.ARM.exidx.text.HAL_FLASH_Program) refers to stm32g0xx_hal_flash.o(.text.HAL_FLASH_Program) for [Anonymous Symbol]
    stm32g0xx_hal_flash.o(.text.FLASH_WaitForLastOperation) refers to stm32g0xx_hal.o(.text.HAL_GetTick) for HAL_GetTick
    stm32g0xx_hal_flash.o(.text.FLASH_WaitForLastOperation) refers to stm32g0xx_hal_flash.o(.bss.pFlash) for pFlash
    stm32g0xx_hal_flash.o(.ARM.exidx.text.FLASH_WaitForLastOperation) refers to stm32g0xx_hal_flash.o(.text.FLASH_WaitForLastOperation) for [Anonymous Symbol]
    stm32g0xx_hal_flash.o(.ARM.exidx.text.FLASH_Program_DoubleWord) refers to stm32g0xx_hal_flash.o(.text.FLASH_Program_DoubleWord) for [Anonymous Symbol]
    stm32g0xx_hal_flash.o(.ARM.exidx.text.FLASH_Program_Fast) refers to stm32g0xx_hal_flash.o(.text.FLASH_Program_Fast) for [Anonymous Symbol]
    stm32g0xx_hal_flash.o(.text.HAL_FLASH_Program_IT) refers to stm32g0xx_hal_flash.o(.text.FLASH_WaitForLastOperation) for FLASH_WaitForLastOperation
    stm32g0xx_hal_flash.o(.text.HAL_FLASH_Program_IT) refers to stm32g0xx_hal_flash.o(.text.FLASH_Program_DoubleWord) for FLASH_Program_DoubleWord
    stm32g0xx_hal_flash.o(.text.HAL_FLASH_Program_IT) refers to stm32g0xx_hal_flash.o(.text.FLASH_Program_Fast) for FLASH_Program_Fast
    stm32g0xx_hal_flash.o(.text.HAL_FLASH_Program_IT) refers to stm32g0xx_hal_flash.o(.bss.pFlash) for pFlash
    stm32g0xx_hal_flash.o(.ARM.exidx.text.HAL_FLASH_Program_IT) refers to stm32g0xx_hal_flash.o(.text.HAL_FLASH_Program_IT) for [Anonymous Symbol]
    stm32g0xx_hal_flash.o(.text.HAL_FLASH_IRQHandler) refers to stm32g0xx_hal_flash.o(.text.HAL_FLASH_OperationErrorCallback) for HAL_FLASH_OperationErrorCallback
    stm32g0xx_hal_flash.o(.text.HAL_FLASH_IRQHandler) refers to stm32g0xx_hal_flash_ex.o(.text.FLASH_PageErase) for FLASH_PageErase
    stm32g0xx_hal_flash.o(.text.HAL_FLASH_IRQHandler) refers to stm32g0xx_hal_flash.o(.text.HAL_FLASH_EndOfOperationCallback) for HAL_FLASH_EndOfOperationCallback
    stm32g0xx_hal_flash.o(.text.HAL_FLASH_IRQHandler) refers to stm32g0xx_hal_flash.o(.bss.pFlash) for pFlash
    stm32g0xx_hal_flash.o(.ARM.exidx.text.HAL_FLASH_IRQHandler) refers to stm32g0xx_hal_flash.o(.text.HAL_FLASH_IRQHandler) for [Anonymous Symbol]
    stm32g0xx_hal_flash.o(.ARM.exidx.text.HAL_FLASH_OperationErrorCallback) refers to stm32g0xx_hal_flash.o(.text.HAL_FLASH_OperationErrorCallback) for [Anonymous Symbol]
    stm32g0xx_hal_flash.o(.ARM.exidx.text.HAL_FLASH_EndOfOperationCallback) refers to stm32g0xx_hal_flash.o(.text.HAL_FLASH_EndOfOperationCallback) for [Anonymous Symbol]
    stm32g0xx_hal_flash.o(.ARM.exidx.text.HAL_FLASH_Unlock) refers to stm32g0xx_hal_flash.o(.text.HAL_FLASH_Unlock) for [Anonymous Symbol]
    stm32g0xx_hal_flash.o(.ARM.exidx.text.HAL_FLASH_Lock) refers to stm32g0xx_hal_flash.o(.text.HAL_FLASH_Lock) for [Anonymous Symbol]
    stm32g0xx_hal_flash.o(.ARM.exidx.text.HAL_FLASH_OB_Unlock) refers to stm32g0xx_hal_flash.o(.text.HAL_FLASH_OB_Unlock) for [Anonymous Symbol]
    stm32g0xx_hal_flash.o(.ARM.exidx.text.HAL_FLASH_OB_Lock) refers to stm32g0xx_hal_flash.o(.text.HAL_FLASH_OB_Lock) for [Anonymous Symbol]
    stm32g0xx_hal_flash.o(.ARM.exidx.text.HAL_FLASH_OB_Launch) refers to stm32g0xx_hal_flash.o(.text.HAL_FLASH_OB_Launch) for [Anonymous Symbol]
    stm32g0xx_hal_flash.o(.text.HAL_FLASH_GetError) refers to stm32g0xx_hal_flash.o(.bss.pFlash) for pFlash
    stm32g0xx_hal_flash.o(.ARM.exidx.text.HAL_FLASH_GetError) refers to stm32g0xx_hal_flash.o(.text.HAL_FLASH_GetError) for [Anonymous Symbol]
    stm32g0xx_hal_flash_ex.o(.text.HAL_FLASHEx_Erase) refers to stm32g0xx_hal_flash.o(.text.FLASH_WaitForLastOperation) for FLASH_WaitForLastOperation
    stm32g0xx_hal_flash_ex.o(.text.HAL_FLASHEx_Erase) refers to stm32g0xx_hal_flash_ex.o(.text.FLASH_MassErase) for FLASH_MassErase
    stm32g0xx_hal_flash_ex.o(.text.HAL_FLASHEx_Erase) refers to stm32g0xx_hal_flash_ex.o(.text.FLASH_PageErase) for FLASH_PageErase
    stm32g0xx_hal_flash_ex.o(.text.HAL_FLASHEx_Erase) refers to stm32g0xx_hal_flash.o(.bss.pFlash) for pFlash
    stm32g0xx_hal_flash_ex.o(.ARM.exidx.text.HAL_FLASHEx_Erase) refers to stm32g0xx_hal_flash_ex.o(.text.HAL_FLASHEx_Erase) for [Anonymous Symbol]
    stm32g0xx_hal_flash_ex.o(.ARM.exidx.text.FLASH_MassErase) refers to stm32g0xx_hal_flash_ex.o(.text.FLASH_MassErase) for [Anonymous Symbol]
    stm32g0xx_hal_flash_ex.o(.ARM.exidx.text.FLASH_PageErase) refers to stm32g0xx_hal_flash_ex.o(.text.FLASH_PageErase) for [Anonymous Symbol]
    stm32g0xx_hal_flash_ex.o(.text.HAL_FLASHEx_Erase_IT) refers to stm32g0xx_hal_flash.o(.text.FLASH_WaitForLastOperation) for FLASH_WaitForLastOperation
    stm32g0xx_hal_flash_ex.o(.text.HAL_FLASHEx_Erase_IT) refers to stm32g0xx_hal_flash_ex.o(.text.FLASH_MassErase) for FLASH_MassErase
    stm32g0xx_hal_flash_ex.o(.text.HAL_FLASHEx_Erase_IT) refers to stm32g0xx_hal_flash_ex.o(.text.FLASH_PageErase) for FLASH_PageErase
    stm32g0xx_hal_flash_ex.o(.text.HAL_FLASHEx_Erase_IT) refers to stm32g0xx_hal_flash.o(.bss.pFlash) for pFlash
    stm32g0xx_hal_flash_ex.o(.ARM.exidx.text.HAL_FLASHEx_Erase_IT) refers to stm32g0xx_hal_flash_ex.o(.text.HAL_FLASHEx_Erase_IT) for [Anonymous Symbol]
    stm32g0xx_hal_flash_ex.o(.text.HAL_FLASHEx_OBProgram) refers to stm32g0xx_hal_flash_ex.o(.text.FLASH_OB_WRPConfig) for FLASH_OB_WRPConfig
    stm32g0xx_hal_flash_ex.o(.text.HAL_FLASHEx_OBProgram) refers to stm32g0xx_hal_flash_ex.o(.text.FLASH_OB_GetRDP) for FLASH_OB_GetRDP
    stm32g0xx_hal_flash_ex.o(.text.HAL_FLASHEx_OBProgram) refers to stm32g0xx_hal_flash_ex.o(.text.FLASH_OB_GetUser) for FLASH_OB_GetUser
    stm32g0xx_hal_flash_ex.o(.text.HAL_FLASHEx_OBProgram) refers to stm32g0xx_hal_flash_ex.o(.text.FLASH_OB_OptrConfig) for FLASH_OB_OptrConfig
    stm32g0xx_hal_flash_ex.o(.text.HAL_FLASHEx_OBProgram) refers to stm32g0xx_hal_flash_ex.o(.text.FLASH_OB_PCROP1AConfig) for FLASH_OB_PCROP1AConfig
    stm32g0xx_hal_flash_ex.o(.text.HAL_FLASHEx_OBProgram) refers to stm32g0xx_hal_flash_ex.o(.text.FLASH_OB_PCROP1BConfig) for FLASH_OB_PCROP1BConfig
    stm32g0xx_hal_flash_ex.o(.text.HAL_FLASHEx_OBProgram) refers to stm32g0xx_hal_flash_ex.o(.text.FLASH_OB_PCROP2AConfig) for FLASH_OB_PCROP2AConfig
    stm32g0xx_hal_flash_ex.o(.text.HAL_FLASHEx_OBProgram) refers to stm32g0xx_hal_flash_ex.o(.text.FLASH_OB_PCROP2BConfig) for FLASH_OB_PCROP2BConfig
    stm32g0xx_hal_flash_ex.o(.text.HAL_FLASHEx_OBProgram) refers to stm32g0xx_hal_flash_ex.o(.text.FLASH_OB_SecMemConfig) for FLASH_OB_SecMemConfig
    stm32g0xx_hal_flash_ex.o(.text.HAL_FLASHEx_OBProgram) refers to stm32g0xx_hal_flash.o(.text.FLASH_WaitForLastOperation) for FLASH_WaitForLastOperation
    stm32g0xx_hal_flash_ex.o(.text.HAL_FLASHEx_OBProgram) refers to stm32g0xx_hal_flash.o(.bss.pFlash) for pFlash
    stm32g0xx_hal_flash_ex.o(.ARM.exidx.text.HAL_FLASHEx_OBProgram) refers to stm32g0xx_hal_flash_ex.o(.text.HAL_FLASHEx_OBProgram) for [Anonymous Symbol]
    stm32g0xx_hal_flash_ex.o(.ARM.exidx.text.FLASH_OB_WRPConfig) refers to stm32g0xx_hal_flash_ex.o(.text.FLASH_OB_WRPConfig) for [Anonymous Symbol]
    stm32g0xx_hal_flash_ex.o(.ARM.exidx.text.FLASH_OB_OptrConfig) refers to stm32g0xx_hal_flash_ex.o(.text.FLASH_OB_OptrConfig) for [Anonymous Symbol]
    stm32g0xx_hal_flash_ex.o(.ARM.exidx.text.FLASH_OB_GetUser) refers to stm32g0xx_hal_flash_ex.o(.text.FLASH_OB_GetUser) for [Anonymous Symbol]
    stm32g0xx_hal_flash_ex.o(.ARM.exidx.text.FLASH_OB_GetRDP) refers to stm32g0xx_hal_flash_ex.o(.text.FLASH_OB_GetRDP) for [Anonymous Symbol]
    stm32g0xx_hal_flash_ex.o(.ARM.exidx.text.FLASH_OB_PCROP1AConfig) refers to stm32g0xx_hal_flash_ex.o(.text.FLASH_OB_PCROP1AConfig) for [Anonymous Symbol]
    stm32g0xx_hal_flash_ex.o(.ARM.exidx.text.FLASH_OB_PCROP1BConfig) refers to stm32g0xx_hal_flash_ex.o(.text.FLASH_OB_PCROP1BConfig) for [Anonymous Symbol]
    stm32g0xx_hal_flash_ex.o(.ARM.exidx.text.FLASH_OB_PCROP2AConfig) refers to stm32g0xx_hal_flash_ex.o(.text.FLASH_OB_PCROP2AConfig) for [Anonymous Symbol]
    stm32g0xx_hal_flash_ex.o(.ARM.exidx.text.FLASH_OB_PCROP2BConfig) refers to stm32g0xx_hal_flash_ex.o(.text.FLASH_OB_PCROP2BConfig) for [Anonymous Symbol]
    stm32g0xx_hal_flash_ex.o(.ARM.exidx.text.FLASH_OB_SecMemConfig) refers to stm32g0xx_hal_flash_ex.o(.text.FLASH_OB_SecMemConfig) for [Anonymous Symbol]
    stm32g0xx_hal_flash_ex.o(.text.HAL_FLASHEx_OBGetConfig) refers to stm32g0xx_hal_flash_ex.o(.text.FLASH_OB_GetWRP) for FLASH_OB_GetWRP
    stm32g0xx_hal_flash_ex.o(.text.HAL_FLASHEx_OBGetConfig) refers to stm32g0xx_hal_flash_ex.o(.text.FLASH_OB_GetRDP) for FLASH_OB_GetRDP
    stm32g0xx_hal_flash_ex.o(.text.HAL_FLASHEx_OBGetConfig) refers to stm32g0xx_hal_flash_ex.o(.text.FLASH_OB_GetUser) for FLASH_OB_GetUser
    stm32g0xx_hal_flash_ex.o(.text.HAL_FLASHEx_OBGetConfig) refers to stm32g0xx_hal_flash_ex.o(.text.FLASH_OB_GetPCROP1A) for FLASH_OB_GetPCROP1A
    stm32g0xx_hal_flash_ex.o(.text.HAL_FLASHEx_OBGetConfig) refers to stm32g0xx_hal_flash_ex.o(.text.FLASH_OB_GetPCROP1B) for FLASH_OB_GetPCROP1B
    stm32g0xx_hal_flash_ex.o(.text.HAL_FLASHEx_OBGetConfig) refers to stm32g0xx_hal_flash_ex.o(.text.FLASH_OB_GetPCROP2A) for FLASH_OB_GetPCROP2A
    stm32g0xx_hal_flash_ex.o(.text.HAL_FLASHEx_OBGetConfig) refers to stm32g0xx_hal_flash_ex.o(.text.FLASH_OB_GetPCROP2B) for FLASH_OB_GetPCROP2B
    stm32g0xx_hal_flash_ex.o(.text.HAL_FLASHEx_OBGetConfig) refers to stm32g0xx_hal_flash_ex.o(.text.FLASH_OB_GetSecMem) for FLASH_OB_GetSecMem
    stm32g0xx_hal_flash_ex.o(.ARM.exidx.text.HAL_FLASHEx_OBGetConfig) refers to stm32g0xx_hal_flash_ex.o(.text.HAL_FLASHEx_OBGetConfig) for [Anonymous Symbol]
    stm32g0xx_hal_flash_ex.o(.ARM.exidx.text.FLASH_OB_GetWRP) refers to stm32g0xx_hal_flash_ex.o(.text.FLASH_OB_GetWRP) for [Anonymous Symbol]
    stm32g0xx_hal_flash_ex.o(.ARM.exidx.text.FLASH_OB_GetPCROP1A) refers to stm32g0xx_hal_flash_ex.o(.text.FLASH_OB_GetPCROP1A) for [Anonymous Symbol]
    stm32g0xx_hal_flash_ex.o(.ARM.exidx.text.FLASH_OB_GetPCROP1B) refers to stm32g0xx_hal_flash_ex.o(.text.FLASH_OB_GetPCROP1B) for [Anonymous Symbol]
    stm32g0xx_hal_flash_ex.o(.ARM.exidx.text.FLASH_OB_GetPCROP2A) refers to stm32g0xx_hal_flash_ex.o(.text.FLASH_OB_GetPCROP2A) for [Anonymous Symbol]
    stm32g0xx_hal_flash_ex.o(.ARM.exidx.text.FLASH_OB_GetPCROP2B) refers to stm32g0xx_hal_flash_ex.o(.text.FLASH_OB_GetPCROP2B) for [Anonymous Symbol]
    stm32g0xx_hal_flash_ex.o(.ARM.exidx.text.FLASH_OB_GetSecMem) refers to stm32g0xx_hal_flash_ex.o(.text.FLASH_OB_GetSecMem) for [Anonymous Symbol]
    stm32g0xx_hal_flash_ex.o(.ARM.exidx.text.HAL_FLASHEx_EnableDebugger) refers to stm32g0xx_hal_flash_ex.o(.text.HAL_FLASHEx_EnableDebugger) for [Anonymous Symbol]
    stm32g0xx_hal_flash_ex.o(.ARM.exidx.text.HAL_FLASHEx_DisableDebugger) refers to stm32g0xx_hal_flash_ex.o(.text.HAL_FLASHEx_DisableDebugger) for [Anonymous Symbol]
    stm32g0xx_hal_flash_ex.o(.ARM.exidx.text.HAL_FLASHEx_FlashEmptyCheck) refers to stm32g0xx_hal_flash_ex.o(.text.HAL_FLASHEx_FlashEmptyCheck) for [Anonymous Symbol]
    stm32g0xx_hal_flash_ex.o(.ARM.exidx.text.HAL_FLASHEx_ForceFlashEmpty) refers to stm32g0xx_hal_flash_ex.o(.text.HAL_FLASHEx_ForceFlashEmpty) for [Anonymous Symbol]
    stm32g0xx_hal_flash_ex.o(.ARM.exidx.text.HAL_FLASHEx_EnableSecMemProtection) refers to stm32g0xx_hal_flash_ex.o(.text.HAL_FLASHEx_EnableSecMemProtection) for [Anonymous Symbol]
    stm32g0xx_hal_flash_ex.o(.ARM.exidx.text.FLASH_FlushCaches) refers to stm32g0xx_hal_flash_ex.o(.text.FLASH_FlushCaches) for [Anonymous Symbol]
    stm32g0xx_hal_gpio.o(.ARM.exidx.text.HAL_GPIO_Init) refers to stm32g0xx_hal_gpio.o(.text.HAL_GPIO_Init) for [Anonymous Symbol]
    stm32g0xx_hal_gpio.o(.ARM.exidx.text.HAL_GPIO_DeInit) refers to stm32g0xx_hal_gpio.o(.text.HAL_GPIO_DeInit) for [Anonymous Symbol]
    stm32g0xx_hal_gpio.o(.ARM.exidx.text.HAL_GPIO_ReadPin) refers to stm32g0xx_hal_gpio.o(.text.HAL_GPIO_ReadPin) for [Anonymous Symbol]
    stm32g0xx_hal_gpio.o(.ARM.exidx.text.HAL_GPIO_WritePin) refers to stm32g0xx_hal_gpio.o(.text.HAL_GPIO_WritePin) for [Anonymous Symbol]
    stm32g0xx_hal_gpio.o(.ARM.exidx.text.HAL_GPIO_TogglePin) refers to stm32g0xx_hal_gpio.o(.text.HAL_GPIO_TogglePin) for [Anonymous Symbol]
    stm32g0xx_hal_gpio.o(.ARM.exidx.text.HAL_GPIO_LockPin) refers to stm32g0xx_hal_gpio.o(.text.HAL_GPIO_LockPin) for [Anonymous Symbol]
    stm32g0xx_hal_gpio.o(.text.HAL_GPIO_EXTI_IRQHandler) refers to stm32g0xx_hal_gpio.o(.text.HAL_GPIO_EXTI_Rising_Callback) for HAL_GPIO_EXTI_Rising_Callback
    stm32g0xx_hal_gpio.o(.text.HAL_GPIO_EXTI_IRQHandler) refers to main.o(.text.HAL_GPIO_EXTI_Falling_Callback) for HAL_GPIO_EXTI_Falling_Callback
    stm32g0xx_hal_gpio.o(.ARM.exidx.text.HAL_GPIO_EXTI_IRQHandler) refers to stm32g0xx_hal_gpio.o(.text.HAL_GPIO_EXTI_IRQHandler) for [Anonymous Symbol]
    stm32g0xx_hal_gpio.o(.ARM.exidx.text.HAL_GPIO_EXTI_Rising_Callback) refers to stm32g0xx_hal_gpio.o(.text.HAL_GPIO_EXTI_Rising_Callback) for [Anonymous Symbol]
    stm32g0xx_hal_gpio.o(.ARM.exidx.text.HAL_GPIO_EXTI_Falling_Callback) refers to stm32g0xx_hal_gpio.o(.text.HAL_GPIO_EXTI_Falling_Callback) for [Anonymous Symbol]
    stm32g0xx_hal_dma.o(.text.HAL_DMA_Init) refers to uidiv_div0.o(.text) for __aeabi_uidiv
    stm32g0xx_hal_dma.o(.text.HAL_DMA_Init) refers to stm32g0xx_hal_dma.o(.text.DMA_CalcDMAMUXChannelBaseAndMask) for DMA_CalcDMAMUXChannelBaseAndMask
    stm32g0xx_hal_dma.o(.text.HAL_DMA_Init) refers to stm32g0xx_hal_dma.o(.text.DMA_CalcDMAMUXRequestGenBaseAndMask) for DMA_CalcDMAMUXRequestGenBaseAndMask
    stm32g0xx_hal_dma.o(.ARM.exidx.text.HAL_DMA_Init) refers to stm32g0xx_hal_dma.o(.text.HAL_DMA_Init) for [Anonymous Symbol]
    stm32g0xx_hal_dma.o(.text.DMA_CalcDMAMUXChannelBaseAndMask) refers to uidiv_div0.o(.text) for __aeabi_uidiv
    stm32g0xx_hal_dma.o(.ARM.exidx.text.DMA_CalcDMAMUXChannelBaseAndMask) refers to stm32g0xx_hal_dma.o(.text.DMA_CalcDMAMUXChannelBaseAndMask) for [Anonymous Symbol]
    stm32g0xx_hal_dma.o(.ARM.exidx.text.DMA_CalcDMAMUXRequestGenBaseAndMask) refers to stm32g0xx_hal_dma.o(.text.DMA_CalcDMAMUXRequestGenBaseAndMask) for [Anonymous Symbol]
    stm32g0xx_hal_dma.o(.text.HAL_DMA_DeInit) refers to uidiv_div0.o(.text) for __aeabi_uidiv
    stm32g0xx_hal_dma.o(.text.HAL_DMA_DeInit) refers to stm32g0xx_hal_dma.o(.text.DMA_CalcDMAMUXChannelBaseAndMask) for DMA_CalcDMAMUXChannelBaseAndMask
    stm32g0xx_hal_dma.o(.text.HAL_DMA_DeInit) refers to stm32g0xx_hal_dma.o(.text.DMA_CalcDMAMUXRequestGenBaseAndMask) for DMA_CalcDMAMUXRequestGenBaseAndMask
    stm32g0xx_hal_dma.o(.ARM.exidx.text.HAL_DMA_DeInit) refers to stm32g0xx_hal_dma.o(.text.HAL_DMA_DeInit) for [Anonymous Symbol]
    stm32g0xx_hal_dma.o(.text.HAL_DMA_Start) refers to stm32g0xx_hal_dma.o(.text.DMA_SetConfig) for DMA_SetConfig
    stm32g0xx_hal_dma.o(.ARM.exidx.text.HAL_DMA_Start) refers to stm32g0xx_hal_dma.o(.text.HAL_DMA_Start) for [Anonymous Symbol]
    stm32g0xx_hal_dma.o(.ARM.exidx.text.DMA_SetConfig) refers to stm32g0xx_hal_dma.o(.text.DMA_SetConfig) for [Anonymous Symbol]
    stm32g0xx_hal_dma.o(.text.HAL_DMA_Start_IT) refers to stm32g0xx_hal_dma.o(.text.DMA_SetConfig) for DMA_SetConfig
    stm32g0xx_hal_dma.o(.ARM.exidx.text.HAL_DMA_Start_IT) refers to stm32g0xx_hal_dma.o(.text.HAL_DMA_Start_IT) for [Anonymous Symbol]
    stm32g0xx_hal_dma.o(.ARM.exidx.text.HAL_DMA_Abort) refers to stm32g0xx_hal_dma.o(.text.HAL_DMA_Abort) for [Anonymous Symbol]
    stm32g0xx_hal_dma.o(.ARM.exidx.text.HAL_DMA_Abort_IT) refers to stm32g0xx_hal_dma.o(.text.HAL_DMA_Abort_IT) for [Anonymous Symbol]
    stm32g0xx_hal_dma.o(.text.HAL_DMA_PollForTransfer) refers to stm32g0xx_hal.o(.text.HAL_GetTick) for HAL_GetTick
    stm32g0xx_hal_dma.o(.ARM.exidx.text.HAL_DMA_PollForTransfer) refers to stm32g0xx_hal_dma.o(.text.HAL_DMA_PollForTransfer) for [Anonymous Symbol]
    stm32g0xx_hal_dma.o(.ARM.exidx.text.HAL_DMA_IRQHandler) refers to stm32g0xx_hal_dma.o(.text.HAL_DMA_IRQHandler) for [Anonymous Symbol]
    stm32g0xx_hal_dma.o(.ARM.exidx.text.HAL_DMA_RegisterCallback) refers to stm32g0xx_hal_dma.o(.text.HAL_DMA_RegisterCallback) for [Anonymous Symbol]
    stm32g0xx_hal_dma.o(.ARM.exidx.text.HAL_DMA_UnRegisterCallback) refers to stm32g0xx_hal_dma.o(.text.HAL_DMA_UnRegisterCallback) for [Anonymous Symbol]
    stm32g0xx_hal_dma.o(.ARM.exidx.text.HAL_DMA_GetState) refers to stm32g0xx_hal_dma.o(.text.HAL_DMA_GetState) for [Anonymous Symbol]
    stm32g0xx_hal_dma.o(.ARM.exidx.text.HAL_DMA_GetError) refers to stm32g0xx_hal_dma.o(.text.HAL_DMA_GetError) for [Anonymous Symbol]
    stm32g0xx_hal_dma_ex.o(.ARM.exidx.text.HAL_DMAEx_ConfigMuxSync) refers to stm32g0xx_hal_dma_ex.o(.text.HAL_DMAEx_ConfigMuxSync) for [Anonymous Symbol]
    stm32g0xx_hal_dma_ex.o(.ARM.exidx.text.HAL_DMAEx_ConfigMuxRequestGenerator) refers to stm32g0xx_hal_dma_ex.o(.text.HAL_DMAEx_ConfigMuxRequestGenerator) for [Anonymous Symbol]
    stm32g0xx_hal_dma_ex.o(.ARM.exidx.text.HAL_DMAEx_EnableMuxRequestGenerator) refers to stm32g0xx_hal_dma_ex.o(.text.HAL_DMAEx_EnableMuxRequestGenerator) for [Anonymous Symbol]
    stm32g0xx_hal_dma_ex.o(.ARM.exidx.text.HAL_DMAEx_DisableMuxRequestGenerator) refers to stm32g0xx_hal_dma_ex.o(.text.HAL_DMAEx_DisableMuxRequestGenerator) for [Anonymous Symbol]
    stm32g0xx_hal_dma_ex.o(.ARM.exidx.text.HAL_DMAEx_MUX_IRQHandler) refers to stm32g0xx_hal_dma_ex.o(.text.HAL_DMAEx_MUX_IRQHandler) for [Anonymous Symbol]
    stm32g0xx_hal_pwr.o(.ARM.exidx.text.HAL_PWR_DeInit) refers to stm32g0xx_hal_pwr.o(.text.HAL_PWR_DeInit) for [Anonymous Symbol]
    stm32g0xx_hal_pwr.o(.ARM.exidx.text.HAL_PWR_EnableBkUpAccess) refers to stm32g0xx_hal_pwr.o(.text.HAL_PWR_EnableBkUpAccess) for [Anonymous Symbol]
    stm32g0xx_hal_pwr.o(.ARM.exidx.text.HAL_PWR_DisableBkUpAccess) refers to stm32g0xx_hal_pwr.o(.text.HAL_PWR_DisableBkUpAccess) for [Anonymous Symbol]
    stm32g0xx_hal_pwr.o(.ARM.exidx.text.HAL_PWR_EnableWakeUpPin) refers to stm32g0xx_hal_pwr.o(.text.HAL_PWR_EnableWakeUpPin) for [Anonymous Symbol]
    stm32g0xx_hal_pwr.o(.ARM.exidx.text.HAL_PWR_DisableWakeUpPin) refers to stm32g0xx_hal_pwr.o(.text.HAL_PWR_DisableWakeUpPin) for [Anonymous Symbol]
    stm32g0xx_hal_pwr.o(.text.HAL_PWR_EnterSLEEPMode) refers to stm32g0xx_hal_pwr_ex.o(.text.HAL_PWREx_EnableLowPowerRunMode) for HAL_PWREx_EnableLowPowerRunMode
    stm32g0xx_hal_pwr.o(.text.HAL_PWR_EnterSLEEPMode) refers to stm32g0xx_hal_pwr_ex.o(.text.HAL_PWREx_DisableLowPowerRunMode) for HAL_PWREx_DisableLowPowerRunMode
    stm32g0xx_hal_pwr.o(.ARM.exidx.text.HAL_PWR_EnterSLEEPMode) refers to stm32g0xx_hal_pwr.o(.text.HAL_PWR_EnterSLEEPMode) for [Anonymous Symbol]
    stm32g0xx_hal_pwr.o(.ARM.exidx.text.HAL_PWR_EnterSTOPMode) refers to stm32g0xx_hal_pwr.o(.text.HAL_PWR_EnterSTOPMode) for [Anonymous Symbol]
    stm32g0xx_hal_pwr.o(.ARM.exidx.text.HAL_PWR_EnterSTANDBYMode) refers to stm32g0xx_hal_pwr.o(.text.HAL_PWR_EnterSTANDBYMode) for [Anonymous Symbol]
    stm32g0xx_hal_pwr.o(.ARM.exidx.text.HAL_PWR_EnableSleepOnExit) refers to stm32g0xx_hal_pwr.o(.text.HAL_PWR_EnableSleepOnExit) for [Anonymous Symbol]
    stm32g0xx_hal_pwr.o(.ARM.exidx.text.HAL_PWR_DisableSleepOnExit) refers to stm32g0xx_hal_pwr.o(.text.HAL_PWR_DisableSleepOnExit) for [Anonymous Symbol]
    stm32g0xx_hal_pwr.o(.ARM.exidx.text.HAL_PWR_EnableSEVOnPend) refers to stm32g0xx_hal_pwr.o(.text.HAL_PWR_EnableSEVOnPend) for [Anonymous Symbol]
    stm32g0xx_hal_pwr.o(.ARM.exidx.text.HAL_PWR_DisableSEVOnPend) refers to stm32g0xx_hal_pwr.o(.text.HAL_PWR_DisableSEVOnPend) for [Anonymous Symbol]
    stm32g0xx_hal_pwr_ex.o(.ARM.exidx.text.HAL_PWREx_EnableBatteryCharging) refers to stm32g0xx_hal_pwr_ex.o(.text.HAL_PWREx_EnableBatteryCharging) for [Anonymous Symbol]
    stm32g0xx_hal_pwr_ex.o(.ARM.exidx.text.HAL_PWREx_DisableBatteryCharging) refers to stm32g0xx_hal_pwr_ex.o(.text.HAL_PWREx_DisableBatteryCharging) for [Anonymous Symbol]
    stm32g0xx_hal_pwr_ex.o(.ARM.exidx.text.HAL_PWREx_EnablePORMonitorSampling) refers to stm32g0xx_hal_pwr_ex.o(.text.HAL_PWREx_EnablePORMonitorSampling) for [Anonymous Symbol]
    stm32g0xx_hal_pwr_ex.o(.ARM.exidx.text.HAL_PWREx_DisablePORMonitorSampling) refers to stm32g0xx_hal_pwr_ex.o(.text.HAL_PWREx_DisablePORMonitorSampling) for [Anonymous Symbol]
    stm32g0xx_hal_pwr_ex.o(.ARM.exidx.text.HAL_PWREx_ConfigPVD) refers to stm32g0xx_hal_pwr_ex.o(.text.HAL_PWREx_ConfigPVD) for [Anonymous Symbol]
    stm32g0xx_hal_pwr_ex.o(.ARM.exidx.text.HAL_PWREx_EnablePVD) refers to stm32g0xx_hal_pwr_ex.o(.text.HAL_PWREx_EnablePVD) for [Anonymous Symbol]
    stm32g0xx_hal_pwr_ex.o(.ARM.exidx.text.HAL_PWREx_DisablePVD) refers to stm32g0xx_hal_pwr_ex.o(.text.HAL_PWREx_DisablePVD) for [Anonymous Symbol]
    stm32g0xx_hal_pwr_ex.o(.ARM.exidx.text.HAL_PWREx_EnableVddUSB) refers to stm32g0xx_hal_pwr_ex.o(.text.HAL_PWREx_EnableVddUSB) for [Anonymous Symbol]
    stm32g0xx_hal_pwr_ex.o(.ARM.exidx.text.HAL_PWREx_DisableVddUSB) refers to stm32g0xx_hal_pwr_ex.o(.text.HAL_PWREx_DisableVddUSB) for [Anonymous Symbol]
    stm32g0xx_hal_pwr_ex.o(.ARM.exidx.text.HAL_PWREx_EnableVddIO2) refers to stm32g0xx_hal_pwr_ex.o(.text.HAL_PWREx_EnableVddIO2) for [Anonymous Symbol]
    stm32g0xx_hal_pwr_ex.o(.ARM.exidx.text.HAL_PWREx_DisableVddIO2) refers to stm32g0xx_hal_pwr_ex.o(.text.HAL_PWREx_DisableVddIO2) for [Anonymous Symbol]
    stm32g0xx_hal_pwr_ex.o(.ARM.exidx.text.HAL_PWREx_EnablePVMUSB) refers to stm32g0xx_hal_pwr_ex.o(.text.HAL_PWREx_EnablePVMUSB) for [Anonymous Symbol]
    stm32g0xx_hal_pwr_ex.o(.ARM.exidx.text.HAL_PWREx_DisablePVMUSB) refers to stm32g0xx_hal_pwr_ex.o(.text.HAL_PWREx_DisablePVMUSB) for [Anonymous Symbol]
    stm32g0xx_hal_pwr_ex.o(.ARM.exidx.text.HAL_PWREx_ConfigPVM) refers to stm32g0xx_hal_pwr_ex.o(.text.HAL_PWREx_ConfigPVM) for [Anonymous Symbol]
    stm32g0xx_hal_pwr_ex.o(.ARM.exidx.text.HAL_PWREx_EnableInternalWakeUpLine) refers to stm32g0xx_hal_pwr_ex.o(.text.HAL_PWREx_EnableInternalWakeUpLine) for [Anonymous Symbol]
    stm32g0xx_hal_pwr_ex.o(.ARM.exidx.text.HAL_PWREx_DisableInternalWakeUpLine) refers to stm32g0xx_hal_pwr_ex.o(.text.HAL_PWREx_DisableInternalWakeUpLine) for [Anonymous Symbol]
    stm32g0xx_hal_pwr_ex.o(.ARM.exidx.text.HAL_PWREx_EnableGPIOPullUp) refers to stm32g0xx_hal_pwr_ex.o(.text.HAL_PWREx_EnableGPIOPullUp) for [Anonymous Symbol]
    stm32g0xx_hal_pwr_ex.o(.ARM.exidx.text.HAL_PWREx_DisableGPIOPullUp) refers to stm32g0xx_hal_pwr_ex.o(.text.HAL_PWREx_DisableGPIOPullUp) for [Anonymous Symbol]
    stm32g0xx_hal_pwr_ex.o(.ARM.exidx.text.HAL_PWREx_EnableGPIOPullDown) refers to stm32g0xx_hal_pwr_ex.o(.text.HAL_PWREx_EnableGPIOPullDown) for [Anonymous Symbol]
    stm32g0xx_hal_pwr_ex.o(.ARM.exidx.text.HAL_PWREx_DisableGPIOPullDown) refers to stm32g0xx_hal_pwr_ex.o(.text.HAL_PWREx_DisableGPIOPullDown) for [Anonymous Symbol]
    stm32g0xx_hal_pwr_ex.o(.ARM.exidx.text.HAL_PWREx_EnablePullUpPullDownConfig) refers to stm32g0xx_hal_pwr_ex.o(.text.HAL_PWREx_EnablePullUpPullDownConfig) for [Anonymous Symbol]
    stm32g0xx_hal_pwr_ex.o(.ARM.exidx.text.HAL_PWREx_DisablePullUpPullDownConfig) refers to stm32g0xx_hal_pwr_ex.o(.text.HAL_PWREx_DisablePullUpPullDownConfig) for [Anonymous Symbol]
    stm32g0xx_hal_pwr_ex.o(.ARM.exidx.text.HAL_PWREx_EnableSRAMRetention) refers to stm32g0xx_hal_pwr_ex.o(.text.HAL_PWREx_EnableSRAMRetention) for [Anonymous Symbol]
    stm32g0xx_hal_pwr_ex.o(.ARM.exidx.text.HAL_PWREx_DisableSRAMRetention) refers to stm32g0xx_hal_pwr_ex.o(.text.HAL_PWREx_DisableSRAMRetention) for [Anonymous Symbol]
    stm32g0xx_hal_pwr_ex.o(.ARM.exidx.text.HAL_PWREx_EnableFlashPowerDown) refers to stm32g0xx_hal_pwr_ex.o(.text.HAL_PWREx_EnableFlashPowerDown) for [Anonymous Symbol]
    stm32g0xx_hal_pwr_ex.o(.ARM.exidx.text.HAL_PWREx_DisableFlashPowerDown) refers to stm32g0xx_hal_pwr_ex.o(.text.HAL_PWREx_DisableFlashPowerDown) for [Anonymous Symbol]
    stm32g0xx_hal_pwr_ex.o(.ARM.exidx.text.HAL_PWREx_GetVoltageRange) refers to stm32g0xx_hal_pwr_ex.o(.text.HAL_PWREx_GetVoltageRange) for [Anonymous Symbol]
    stm32g0xx_hal_pwr_ex.o(.text.HAL_PWREx_ControlVoltageScaling) refers to uidiv_div0.o(.text) for __aeabi_uidiv
    stm32g0xx_hal_pwr_ex.o(.text.HAL_PWREx_ControlVoltageScaling) refers to system_stm32g0xx.o(.data.SystemCoreClock) for SystemCoreClock
    stm32g0xx_hal_pwr_ex.o(.ARM.exidx.text.HAL_PWREx_ControlVoltageScaling) refers to stm32g0xx_hal_pwr_ex.o(.text.HAL_PWREx_ControlVoltageScaling) for [Anonymous Symbol]
    stm32g0xx_hal_pwr_ex.o(.ARM.exidx.text.HAL_PWREx_EnableLowPowerRunMode) refers to stm32g0xx_hal_pwr_ex.o(.text.HAL_PWREx_EnableLowPowerRunMode) for [Anonymous Symbol]
    stm32g0xx_hal_pwr_ex.o(.text.HAL_PWREx_DisableLowPowerRunMode) refers to uidiv_div0.o(.text) for __aeabi_uidiv
    stm32g0xx_hal_pwr_ex.o(.text.HAL_PWREx_DisableLowPowerRunMode) refers to system_stm32g0xx.o(.data.SystemCoreClock) for SystemCoreClock
    stm32g0xx_hal_pwr_ex.o(.ARM.exidx.text.HAL_PWREx_DisableLowPowerRunMode) refers to stm32g0xx_hal_pwr_ex.o(.text.HAL_PWREx_DisableLowPowerRunMode) for [Anonymous Symbol]
    stm32g0xx_hal_pwr_ex.o(.ARM.exidx.text.HAL_PWREx_EnterSHUTDOWNMode) refers to stm32g0xx_hal_pwr_ex.o(.text.HAL_PWREx_EnterSHUTDOWNMode) for [Anonymous Symbol]
    stm32g0xx_hal_pwr_ex.o(.text.HAL_PWREx_PVD_PVM_IRQHandler) refers to stm32g0xx_hal_pwr_ex.o(.text.HAL_PWREx_PVD_PVM_Rising_Callback) for HAL_PWREx_PVD_PVM_Rising_Callback
    stm32g0xx_hal_pwr_ex.o(.text.HAL_PWREx_PVD_PVM_IRQHandler) refers to stm32g0xx_hal_pwr_ex.o(.text.HAL_PWREx_PVD_PVM_Falling_Callback) for HAL_PWREx_PVD_PVM_Falling_Callback
    stm32g0xx_hal_pwr_ex.o(.ARM.exidx.text.HAL_PWREx_PVD_PVM_IRQHandler) refers to stm32g0xx_hal_pwr_ex.o(.text.HAL_PWREx_PVD_PVM_IRQHandler) for [Anonymous Symbol]
    stm32g0xx_hal_pwr_ex.o(.ARM.exidx.text.HAL_PWREx_PVD_PVM_Rising_Callback) refers to stm32g0xx_hal_pwr_ex.o(.text.HAL_PWREx_PVD_PVM_Rising_Callback) for [Anonymous Symbol]
    stm32g0xx_hal_pwr_ex.o(.ARM.exidx.text.HAL_PWREx_PVD_PVM_Falling_Callback) refers to stm32g0xx_hal_pwr_ex.o(.text.HAL_PWREx_PVD_PVM_Falling_Callback) for [Anonymous Symbol]
    stm32g0xx_hal_cortex.o(.text.HAL_NVIC_SetPriority) refers to stm32g0xx_hal_cortex.o(.text.__NVIC_SetPriority) for __NVIC_SetPriority
    stm32g0xx_hal_cortex.o(.ARM.exidx.text.HAL_NVIC_SetPriority) refers to stm32g0xx_hal_cortex.o(.text.HAL_NVIC_SetPriority) for [Anonymous Symbol]
    stm32g0xx_hal_cortex.o(.ARM.exidx.text.__NVIC_SetPriority) refers to stm32g0xx_hal_cortex.o(.text.__NVIC_SetPriority) for [Anonymous Symbol]
    stm32g0xx_hal_cortex.o(.text.HAL_NVIC_EnableIRQ) refers to stm32g0xx_hal_cortex.o(.text.__NVIC_EnableIRQ) for __NVIC_EnableIRQ
    stm32g0xx_hal_cortex.o(.ARM.exidx.text.HAL_NVIC_EnableIRQ) refers to stm32g0xx_hal_cortex.o(.text.HAL_NVIC_EnableIRQ) for [Anonymous Symbol]
    stm32g0xx_hal_cortex.o(.ARM.exidx.text.__NVIC_EnableIRQ) refers to stm32g0xx_hal_cortex.o(.text.__NVIC_EnableIRQ) for [Anonymous Symbol]
    stm32g0xx_hal_cortex.o(.text.HAL_NVIC_DisableIRQ) refers to stm32g0xx_hal_cortex.o(.text.__NVIC_DisableIRQ) for __NVIC_DisableIRQ
    stm32g0xx_hal_cortex.o(.ARM.exidx.text.HAL_NVIC_DisableIRQ) refers to stm32g0xx_hal_cortex.o(.text.HAL_NVIC_DisableIRQ) for [Anonymous Symbol]
    stm32g0xx_hal_cortex.o(.ARM.exidx.text.__NVIC_DisableIRQ) refers to stm32g0xx_hal_cortex.o(.text.__NVIC_DisableIRQ) for [Anonymous Symbol]
    stm32g0xx_hal_cortex.o(.text.HAL_NVIC_SystemReset) refers to stm32g0xx_hal_cortex.o(.text.__NVIC_SystemReset) for __NVIC_SystemReset
    stm32g0xx_hal_cortex.o(.ARM.exidx.text.HAL_NVIC_SystemReset) refers to stm32g0xx_hal_cortex.o(.text.HAL_NVIC_SystemReset) for [Anonymous Symbol]
    stm32g0xx_hal_cortex.o(.ARM.exidx.text.__NVIC_SystemReset) refers to stm32g0xx_hal_cortex.o(.text.__NVIC_SystemReset) for [Anonymous Symbol]
    stm32g0xx_hal_cortex.o(.text.HAL_SYSTICK_Config) refers to stm32g0xx_hal_cortex.o(.text.SysTick_Config) for SysTick_Config
    stm32g0xx_hal_cortex.o(.ARM.exidx.text.HAL_SYSTICK_Config) refers to stm32g0xx_hal_cortex.o(.text.HAL_SYSTICK_Config) for [Anonymous Symbol]
    stm32g0xx_hal_cortex.o(.text.SysTick_Config) refers to stm32g0xx_hal_cortex.o(.text.__NVIC_SetPriority) for __NVIC_SetPriority
    stm32g0xx_hal_cortex.o(.ARM.exidx.text.SysTick_Config) refers to stm32g0xx_hal_cortex.o(.text.SysTick_Config) for [Anonymous Symbol]
    stm32g0xx_hal_cortex.o(.text.HAL_NVIC_GetPriority) refers to stm32g0xx_hal_cortex.o(.text.__NVIC_GetPriority) for __NVIC_GetPriority
    stm32g0xx_hal_cortex.o(.ARM.exidx.text.HAL_NVIC_GetPriority) refers to stm32g0xx_hal_cortex.o(.text.HAL_NVIC_GetPriority) for [Anonymous Symbol]
    stm32g0xx_hal_cortex.o(.ARM.exidx.text.__NVIC_GetPriority) refers to stm32g0xx_hal_cortex.o(.text.__NVIC_GetPriority) for [Anonymous Symbol]
    stm32g0xx_hal_cortex.o(.text.HAL_NVIC_SetPendingIRQ) refers to stm32g0xx_hal_cortex.o(.text.__NVIC_SetPendingIRQ) for __NVIC_SetPendingIRQ
    stm32g0xx_hal_cortex.o(.ARM.exidx.text.HAL_NVIC_SetPendingIRQ) refers to stm32g0xx_hal_cortex.o(.text.HAL_NVIC_SetPendingIRQ) for [Anonymous Symbol]
    stm32g0xx_hal_cortex.o(.ARM.exidx.text.__NVIC_SetPendingIRQ) refers to stm32g0xx_hal_cortex.o(.text.__NVIC_SetPendingIRQ) for [Anonymous Symbol]
    stm32g0xx_hal_cortex.o(.text.HAL_NVIC_GetPendingIRQ) refers to stm32g0xx_hal_cortex.o(.text.__NVIC_GetPendingIRQ) for __NVIC_GetPendingIRQ
    stm32g0xx_hal_cortex.o(.ARM.exidx.text.HAL_NVIC_GetPendingIRQ) refers to stm32g0xx_hal_cortex.o(.text.HAL_NVIC_GetPendingIRQ) for [Anonymous Symbol]
    stm32g0xx_hal_cortex.o(.ARM.exidx.text.__NVIC_GetPendingIRQ) refers to stm32g0xx_hal_cortex.o(.text.__NVIC_GetPendingIRQ) for [Anonymous Symbol]
    stm32g0xx_hal_cortex.o(.text.HAL_NVIC_ClearPendingIRQ) refers to stm32g0xx_hal_cortex.o(.text.__NVIC_ClearPendingIRQ) for __NVIC_ClearPendingIRQ
    stm32g0xx_hal_cortex.o(.ARM.exidx.text.HAL_NVIC_ClearPendingIRQ) refers to stm32g0xx_hal_cortex.o(.text.HAL_NVIC_ClearPendingIRQ) for [Anonymous Symbol]
    stm32g0xx_hal_cortex.o(.ARM.exidx.text.__NVIC_ClearPendingIRQ) refers to stm32g0xx_hal_cortex.o(.text.__NVIC_ClearPendingIRQ) for [Anonymous Symbol]
    stm32g0xx_hal_cortex.o(.ARM.exidx.text.HAL_SYSTICK_CLKSourceConfig) refers to stm32g0xx_hal_cortex.o(.text.HAL_SYSTICK_CLKSourceConfig) for [Anonymous Symbol]
    stm32g0xx_hal_cortex.o(.text.HAL_SYSTICK_IRQHandler) refers to stm32g0xx_hal_cortex.o(.text.HAL_SYSTICK_Callback) for HAL_SYSTICK_Callback
    stm32g0xx_hal_cortex.o(.ARM.exidx.text.HAL_SYSTICK_IRQHandler) refers to stm32g0xx_hal_cortex.o(.text.HAL_SYSTICK_IRQHandler) for [Anonymous Symbol]
    stm32g0xx_hal_cortex.o(.ARM.exidx.text.HAL_SYSTICK_Callback) refers to stm32g0xx_hal_cortex.o(.text.HAL_SYSTICK_Callback) for [Anonymous Symbol]
    stm32g0xx_hal_cortex.o(.ARM.exidx.text.HAL_MPU_Enable) refers to stm32g0xx_hal_cortex.o(.text.HAL_MPU_Enable) for [Anonymous Symbol]
    stm32g0xx_hal_cortex.o(.ARM.exidx.text.HAL_MPU_Disable) refers to stm32g0xx_hal_cortex.o(.text.HAL_MPU_Disable) for [Anonymous Symbol]
    stm32g0xx_hal_cortex.o(.ARM.exidx.text.HAL_MPU_ConfigRegion) refers to stm32g0xx_hal_cortex.o(.text.HAL_MPU_ConfigRegion) for [Anonymous Symbol]
    stm32g0xx_hal.o(.text.HAL_Init) refers to stm32g0xx_hal.o(.text.HAL_InitTick) for HAL_InitTick
    stm32g0xx_hal.o(.text.HAL_Init) refers to stm32g0xx_hal_msp.o(.text.HAL_MspInit) for HAL_MspInit
    stm32g0xx_hal.o(.ARM.exidx.text.HAL_Init) refers to stm32g0xx_hal.o(.text.HAL_Init) for [Anonymous Symbol]
    stm32g0xx_hal.o(.text.HAL_InitTick) refers to uidiv_div0.o(.text) for __aeabi_uidiv
    stm32g0xx_hal.o(.text.HAL_InitTick) refers to stm32g0xx_hal_cortex.o(.text.HAL_SYSTICK_Config) for HAL_SYSTICK_Config
    stm32g0xx_hal.o(.text.HAL_InitTick) refers to stm32g0xx_hal_cortex.o(.text.HAL_NVIC_SetPriority) for HAL_NVIC_SetPriority
    stm32g0xx_hal.o(.text.HAL_InitTick) refers to stm32g0xx_hal.o(.data.uwTickFreq) for uwTickFreq
    stm32g0xx_hal.o(.text.HAL_InitTick) refers to system_stm32g0xx.o(.data.SystemCoreClock) for SystemCoreClock
    stm32g0xx_hal.o(.text.HAL_InitTick) refers to stm32g0xx_hal.o(.data.uwTickPrio) for uwTickPrio
    stm32g0xx_hal.o(.ARM.exidx.text.HAL_InitTick) refers to stm32g0xx_hal.o(.text.HAL_InitTick) for [Anonymous Symbol]
    stm32g0xx_hal.o(.ARM.exidx.text.HAL_MspInit) refers to stm32g0xx_hal.o(.text.HAL_MspInit) for [Anonymous Symbol]
    stm32g0xx_hal.o(.text.HAL_DeInit) refers to stm32g0xx_hal.o(.text.HAL_MspDeInit) for HAL_MspDeInit
    stm32g0xx_hal.o(.ARM.exidx.text.HAL_DeInit) refers to stm32g0xx_hal.o(.text.HAL_DeInit) for [Anonymous Symbol]
    stm32g0xx_hal.o(.ARM.exidx.text.HAL_MspDeInit) refers to stm32g0xx_hal.o(.text.HAL_MspDeInit) for [Anonymous Symbol]
    stm32g0xx_hal.o(.text.HAL_IncTick) refers to stm32g0xx_hal.o(.data.uwTickFreq) for uwTickFreq
    stm32g0xx_hal.o(.text.HAL_IncTick) refers to stm32g0xx_hal.o(.bss.uwTick) for uwTick
    stm32g0xx_hal.o(.ARM.exidx.text.HAL_IncTick) refers to stm32g0xx_hal.o(.text.HAL_IncTick) for [Anonymous Symbol]
    stm32g0xx_hal.o(.text.HAL_GetTick) refers to stm32g0xx_hal.o(.bss.uwTick) for uwTick
    stm32g0xx_hal.o(.ARM.exidx.text.HAL_GetTick) refers to stm32g0xx_hal.o(.text.HAL_GetTick) for [Anonymous Symbol]
    stm32g0xx_hal.o(.text.HAL_GetTickPrio) refers to stm32g0xx_hal.o(.data.uwTickPrio) for uwTickPrio
    stm32g0xx_hal.o(.ARM.exidx.text.HAL_GetTickPrio) refers to stm32g0xx_hal.o(.text.HAL_GetTickPrio) for [Anonymous Symbol]
    stm32g0xx_hal.o(.text.HAL_SetTickFreq) refers to stm32g0xx_hal.o(.text.HAL_InitTick) for HAL_InitTick
    stm32g0xx_hal.o(.text.HAL_SetTickFreq) refers to stm32g0xx_hal.o(.data.uwTickFreq) for uwTickFreq
    stm32g0xx_hal.o(.text.HAL_SetTickFreq) refers to stm32g0xx_hal.o(.data.uwTickPrio) for uwTickPrio
    stm32g0xx_hal.o(.ARM.exidx.text.HAL_SetTickFreq) refers to stm32g0xx_hal.o(.text.HAL_SetTickFreq) for [Anonymous Symbol]
    stm32g0xx_hal.o(.text.HAL_GetTickFreq) refers to stm32g0xx_hal.o(.data.uwTickFreq) for uwTickFreq
    stm32g0xx_hal.o(.ARM.exidx.text.HAL_GetTickFreq) refers to stm32g0xx_hal.o(.text.HAL_GetTickFreq) for [Anonymous Symbol]
    stm32g0xx_hal.o(.text.HAL_Delay) refers to stm32g0xx_hal.o(.text.HAL_GetTick) for HAL_GetTick
    stm32g0xx_hal.o(.text.HAL_Delay) refers to stm32g0xx_hal.o(.data.uwTickFreq) for uwTickFreq
    stm32g0xx_hal.o(.ARM.exidx.text.HAL_Delay) refers to stm32g0xx_hal.o(.text.HAL_Delay) for [Anonymous Symbol]
    stm32g0xx_hal.o(.ARM.exidx.text.HAL_SuspendTick) refers to stm32g0xx_hal.o(.text.HAL_SuspendTick) for [Anonymous Symbol]
    stm32g0xx_hal.o(.ARM.exidx.text.HAL_ResumeTick) refers to stm32g0xx_hal.o(.text.HAL_ResumeTick) for [Anonymous Symbol]
    stm32g0xx_hal.o(.ARM.exidx.text.HAL_GetHalVersion) refers to stm32g0xx_hal.o(.text.HAL_GetHalVersion) for [Anonymous Symbol]
    stm32g0xx_hal.o(.ARM.exidx.text.HAL_GetREVID) refers to stm32g0xx_hal.o(.text.HAL_GetREVID) for [Anonymous Symbol]
    stm32g0xx_hal.o(.ARM.exidx.text.HAL_GetDEVID) refers to stm32g0xx_hal.o(.text.HAL_GetDEVID) for [Anonymous Symbol]
    stm32g0xx_hal.o(.ARM.exidx.text.HAL_GetUIDw0) refers to stm32g0xx_hal.o(.text.HAL_GetUIDw0) for [Anonymous Symbol]
    stm32g0xx_hal.o(.ARM.exidx.text.HAL_GetUIDw1) refers to stm32g0xx_hal.o(.text.HAL_GetUIDw1) for [Anonymous Symbol]
    stm32g0xx_hal.o(.ARM.exidx.text.HAL_GetUIDw2) refers to stm32g0xx_hal.o(.text.HAL_GetUIDw2) for [Anonymous Symbol]
    stm32g0xx_hal.o(.ARM.exidx.text.HAL_DBGMCU_EnableDBGStopMode) refers to stm32g0xx_hal.o(.text.HAL_DBGMCU_EnableDBGStopMode) for [Anonymous Symbol]
    stm32g0xx_hal.o(.ARM.exidx.text.HAL_DBGMCU_DisableDBGStopMode) refers to stm32g0xx_hal.o(.text.HAL_DBGMCU_DisableDBGStopMode) for [Anonymous Symbol]
    stm32g0xx_hal.o(.ARM.exidx.text.HAL_DBGMCU_EnableDBGStandbyMode) refers to stm32g0xx_hal.o(.text.HAL_DBGMCU_EnableDBGStandbyMode) for [Anonymous Symbol]
    stm32g0xx_hal.o(.ARM.exidx.text.HAL_DBGMCU_DisableDBGStandbyMode) refers to stm32g0xx_hal.o(.text.HAL_DBGMCU_DisableDBGStandbyMode) for [Anonymous Symbol]
    stm32g0xx_hal.o(.ARM.exidx.text.HAL_SYSCFG_VREFBUF_VoltageScalingConfig) refers to stm32g0xx_hal.o(.text.HAL_SYSCFG_VREFBUF_VoltageScalingConfig) for [Anonymous Symbol]
    stm32g0xx_hal.o(.ARM.exidx.text.HAL_SYSCFG_VREFBUF_HighImpedanceConfig) refers to stm32g0xx_hal.o(.text.HAL_SYSCFG_VREFBUF_HighImpedanceConfig) for [Anonymous Symbol]
    stm32g0xx_hal.o(.ARM.exidx.text.HAL_SYSCFG_VREFBUF_TrimmingConfig) refers to stm32g0xx_hal.o(.text.HAL_SYSCFG_VREFBUF_TrimmingConfig) for [Anonymous Symbol]
    stm32g0xx_hal.o(.text.HAL_SYSCFG_EnableVREFBUF) refers to stm32g0xx_hal.o(.text.HAL_GetTick) for HAL_GetTick
    stm32g0xx_hal.o(.ARM.exidx.text.HAL_SYSCFG_EnableVREFBUF) refers to stm32g0xx_hal.o(.text.HAL_SYSCFG_EnableVREFBUF) for [Anonymous Symbol]
    stm32g0xx_hal.o(.ARM.exidx.text.HAL_SYSCFG_DisableVREFBUF) refers to stm32g0xx_hal.o(.text.HAL_SYSCFG_DisableVREFBUF) for [Anonymous Symbol]
    stm32g0xx_hal.o(.ARM.exidx.text.HAL_SYSCFG_EnableIOAnalogSwitchBooster) refers to stm32g0xx_hal.o(.text.HAL_SYSCFG_EnableIOAnalogSwitchBooster) for [Anonymous Symbol]
    stm32g0xx_hal.o(.ARM.exidx.text.HAL_SYSCFG_DisableIOAnalogSwitchBooster) refers to stm32g0xx_hal.o(.text.HAL_SYSCFG_DisableIOAnalogSwitchBooster) for [Anonymous Symbol]
    stm32g0xx_hal.o(.ARM.exidx.text.HAL_SYSCFG_EnableRemap) refers to stm32g0xx_hal.o(.text.HAL_SYSCFG_EnableRemap) for [Anonymous Symbol]
    stm32g0xx_hal.o(.ARM.exidx.text.HAL_SYSCFG_DisableRemap) refers to stm32g0xx_hal.o(.text.HAL_SYSCFG_DisableRemap) for [Anonymous Symbol]
    stm32g0xx_hal.o(.ARM.exidx.text.HAL_SYSCFG_EnableClampingDiode) refers to stm32g0xx_hal.o(.text.HAL_SYSCFG_EnableClampingDiode) for [Anonymous Symbol]
    stm32g0xx_hal.o(.ARM.exidx.text.HAL_SYSCFG_DisableClampingDiode) refers to stm32g0xx_hal.o(.text.HAL_SYSCFG_DisableClampingDiode) for [Anonymous Symbol]
    stm32g0xx_hal.o(.ARM.exidx.text.HAL_SYSCFG_StrobeDBattpinsConfig) refers to stm32g0xx_hal.o(.text.HAL_SYSCFG_StrobeDBattpinsConfig) for [Anonymous Symbol]
    stm32g0xx_hal_exti.o(.ARM.exidx.text.HAL_EXTI_SetConfigLine) refers to stm32g0xx_hal_exti.o(.text.HAL_EXTI_SetConfigLine) for [Anonymous Symbol]
    stm32g0xx_hal_exti.o(.ARM.exidx.text.HAL_EXTI_GetConfigLine) refers to stm32g0xx_hal_exti.o(.text.HAL_EXTI_GetConfigLine) for [Anonymous Symbol]
    stm32g0xx_hal_exti.o(.ARM.exidx.text.HAL_EXTI_ClearConfigLine) refers to stm32g0xx_hal_exti.o(.text.HAL_EXTI_ClearConfigLine) for [Anonymous Symbol]
    stm32g0xx_hal_exti.o(.ARM.exidx.text.HAL_EXTI_RegisterCallback) refers to stm32g0xx_hal_exti.o(.text.HAL_EXTI_RegisterCallback) for [Anonymous Symbol]
    stm32g0xx_hal_exti.o(.ARM.exidx.text.HAL_EXTI_GetHandle) refers to stm32g0xx_hal_exti.o(.text.HAL_EXTI_GetHandle) for [Anonymous Symbol]
    stm32g0xx_hal_exti.o(.ARM.exidx.text.HAL_EXTI_IRQHandler) refers to stm32g0xx_hal_exti.o(.text.HAL_EXTI_IRQHandler) for [Anonymous Symbol]
    stm32g0xx_hal_exti.o(.ARM.exidx.text.HAL_EXTI_GetPending) refers to stm32g0xx_hal_exti.o(.text.HAL_EXTI_GetPending) for [Anonymous Symbol]
    stm32g0xx_hal_exti.o(.ARM.exidx.text.HAL_EXTI_ClearPending) refers to stm32g0xx_hal_exti.o(.text.HAL_EXTI_ClearPending) for [Anonymous Symbol]
    stm32g0xx_hal_exti.o(.ARM.exidx.text.HAL_EXTI_GenerateSWI) refers to stm32g0xx_hal_exti.o(.text.HAL_EXTI_GenerateSWI) for [Anonymous Symbol]
    stm32g0xx_hal_uart.o(.text.HAL_UART_Init) refers to usart.o(.text.HAL_UART_MspInit) for HAL_UART_MspInit
    stm32g0xx_hal_uart.o(.text.HAL_UART_Init) refers to stm32g0xx_hal_uart.o(.text.UART_SetConfig) for UART_SetConfig
    stm32g0xx_hal_uart.o(.text.HAL_UART_Init) refers to stm32g0xx_hal_uart.o(.text.UART_AdvFeatureConfig) for UART_AdvFeatureConfig
    stm32g0xx_hal_uart.o(.text.HAL_UART_Init) refers to stm32g0xx_hal_uart.o(.text.UART_CheckIdleState) for UART_CheckIdleState
    stm32g0xx_hal_uart.o(.ARM.exidx.text.HAL_UART_Init) refers to stm32g0xx_hal_uart.o(.text.HAL_UART_Init) for [Anonymous Symbol]
    stm32g0xx_hal_uart.o(.ARM.exidx.text.HAL_UART_MspInit) refers to stm32g0xx_hal_uart.o(.text.HAL_UART_MspInit) for [Anonymous Symbol]
    stm32g0xx_hal_uart.o(.text.UART_SetConfig) refers to stm32g0xx_hal_rcc.o(.text.HAL_RCC_GetPCLK1Freq) for HAL_RCC_GetPCLK1Freq
    stm32g0xx_hal_uart.o(.text.UART_SetConfig) refers to stm32g0xx_hal_rcc.o(.text.HAL_RCC_GetSysClockFreq) for HAL_RCC_GetSysClockFreq
    stm32g0xx_hal_uart.o(.text.UART_SetConfig) refers to uidiv_div0.o(.text) for __aeabi_uidiv
    stm32g0xx_hal_uart.o(.text.UART_SetConfig) refers to uldiv.o(.text) for __aeabi_uldivmod
    stm32g0xx_hal_uart.o(.text.UART_SetConfig) refers to stm32g0xx_hal_uart.o(.rodata.UARTPrescTable) for UARTPrescTable
    stm32g0xx_hal_uart.o(.ARM.exidx.text.UART_SetConfig) refers to stm32g0xx_hal_uart.o(.text.UART_SetConfig) for [Anonymous Symbol]
    stm32g0xx_hal_uart.o(.ARM.exidx.text.UART_AdvFeatureConfig) refers to stm32g0xx_hal_uart.o(.text.UART_AdvFeatureConfig) for [Anonymous Symbol]
    stm32g0xx_hal_uart.o(.text.UART_CheckIdleState) refers to stm32g0xx_hal.o(.text.HAL_GetTick) for HAL_GetTick
    stm32g0xx_hal_uart.o(.text.UART_CheckIdleState) refers to stm32g0xx_hal_uart.o(.text.UART_WaitOnFlagUntilTimeout) for UART_WaitOnFlagUntilTimeout
    stm32g0xx_hal_uart.o(.ARM.exidx.text.UART_CheckIdleState) refers to stm32g0xx_hal_uart.o(.text.UART_CheckIdleState) for [Anonymous Symbol]
    stm32g0xx_hal_uart.o(.text.HAL_HalfDuplex_Init) refers to usart.o(.text.HAL_UART_MspInit) for HAL_UART_MspInit
    stm32g0xx_hal_uart.o(.text.HAL_HalfDuplex_Init) refers to stm32g0xx_hal_uart.o(.text.UART_SetConfig) for UART_SetConfig
    stm32g0xx_hal_uart.o(.text.HAL_HalfDuplex_Init) refers to stm32g0xx_hal_uart.o(.text.UART_AdvFeatureConfig) for UART_AdvFeatureConfig
    stm32g0xx_hal_uart.o(.text.HAL_HalfDuplex_Init) refers to stm32g0xx_hal_uart.o(.text.UART_CheckIdleState) for UART_CheckIdleState
    stm32g0xx_hal_uart.o(.ARM.exidx.text.HAL_HalfDuplex_Init) refers to stm32g0xx_hal_uart.o(.text.HAL_HalfDuplex_Init) for [Anonymous Symbol]
    stm32g0xx_hal_uart.o(.text.HAL_LIN_Init) refers to usart.o(.text.HAL_UART_MspInit) for HAL_UART_MspInit
    stm32g0xx_hal_uart.o(.text.HAL_LIN_Init) refers to stm32g0xx_hal_uart.o(.text.UART_SetConfig) for UART_SetConfig
    stm32g0xx_hal_uart.o(.text.HAL_LIN_Init) refers to stm32g0xx_hal_uart.o(.text.UART_AdvFeatureConfig) for UART_AdvFeatureConfig
    stm32g0xx_hal_uart.o(.text.HAL_LIN_Init) refers to stm32g0xx_hal_uart.o(.text.UART_CheckIdleState) for UART_CheckIdleState
    stm32g0xx_hal_uart.o(.ARM.exidx.text.HAL_LIN_Init) refers to stm32g0xx_hal_uart.o(.text.HAL_LIN_Init) for [Anonymous Symbol]
    stm32g0xx_hal_uart.o(.text.HAL_MultiProcessor_Init) refers to usart.o(.text.HAL_UART_MspInit) for HAL_UART_MspInit
    stm32g0xx_hal_uart.o(.text.HAL_MultiProcessor_Init) refers to stm32g0xx_hal_uart.o(.text.UART_SetConfig) for UART_SetConfig
    stm32g0xx_hal_uart.o(.text.HAL_MultiProcessor_Init) refers to stm32g0xx_hal_uart.o(.text.UART_AdvFeatureConfig) for UART_AdvFeatureConfig
    stm32g0xx_hal_uart.o(.text.HAL_MultiProcessor_Init) refers to stm32g0xx_hal_uart.o(.text.UART_CheckIdleState) for UART_CheckIdleState
    stm32g0xx_hal_uart.o(.ARM.exidx.text.HAL_MultiProcessor_Init) refers to stm32g0xx_hal_uart.o(.text.HAL_MultiProcessor_Init) for [Anonymous Symbol]
    stm32g0xx_hal_uart.o(.text.HAL_UART_DeInit) refers to usart.o(.text.HAL_UART_MspDeInit) for HAL_UART_MspDeInit
    stm32g0xx_hal_uart.o(.ARM.exidx.text.HAL_UART_DeInit) refers to stm32g0xx_hal_uart.o(.text.HAL_UART_DeInit) for [Anonymous Symbol]
    stm32g0xx_hal_uart.o(.ARM.exidx.text.HAL_UART_MspDeInit) refers to stm32g0xx_hal_uart.o(.text.HAL_UART_MspDeInit) for [Anonymous Symbol]
    stm32g0xx_hal_uart.o(.text.HAL_UART_Transmit) refers to stm32g0xx_hal.o(.text.HAL_GetTick) for HAL_GetTick
    stm32g0xx_hal_uart.o(.text.HAL_UART_Transmit) refers to stm32g0xx_hal_uart.o(.text.UART_WaitOnFlagUntilTimeout) for UART_WaitOnFlagUntilTimeout
    stm32g0xx_hal_uart.o(.ARM.exidx.text.HAL_UART_Transmit) refers to stm32g0xx_hal_uart.o(.text.HAL_UART_Transmit) for [Anonymous Symbol]
    stm32g0xx_hal_uart.o(.text.UART_WaitOnFlagUntilTimeout) refers to stm32g0xx_hal.o(.text.HAL_GetTick) for HAL_GetTick
    stm32g0xx_hal_uart.o(.ARM.exidx.text.UART_WaitOnFlagUntilTimeout) refers to stm32g0xx_hal_uart.o(.text.UART_WaitOnFlagUntilTimeout) for [Anonymous Symbol]
    stm32g0xx_hal_uart.o(.text.HAL_UART_Receive) refers to stm32g0xx_hal.o(.text.HAL_GetTick) for HAL_GetTick
    stm32g0xx_hal_uart.o(.text.HAL_UART_Receive) refers to stm32g0xx_hal_uart.o(.text.UART_WaitOnFlagUntilTimeout) for UART_WaitOnFlagUntilTimeout
    stm32g0xx_hal_uart.o(.ARM.exidx.text.HAL_UART_Receive) refers to stm32g0xx_hal_uart.o(.text.HAL_UART_Receive) for [Anonymous Symbol]
    stm32g0xx_hal_uart.o(.text.HAL_UART_Transmit_IT) refers to stm32g0xx_hal_uart.o(.text.UART_TxISR_16BIT) for UART_TxISR_16BIT
    stm32g0xx_hal_uart.o(.text.HAL_UART_Transmit_IT) refers to stm32g0xx_hal_uart.o(.text.UART_TxISR_8BIT) for UART_TxISR_8BIT
    stm32g0xx_hal_uart.o(.text.HAL_UART_Transmit_IT) refers to stm32g0xx_hal_uart.o(.text.UART_TxISR_16BIT_FIFOEN) for UART_TxISR_16BIT_FIFOEN
    stm32g0xx_hal_uart.o(.text.HAL_UART_Transmit_IT) refers to stm32g0xx_hal_uart.o(.text.UART_TxISR_8BIT_FIFOEN) for UART_TxISR_8BIT_FIFOEN
    stm32g0xx_hal_uart.o(.ARM.exidx.text.HAL_UART_Transmit_IT) refers to stm32g0xx_hal_uart.o(.text.HAL_UART_Transmit_IT) for [Anonymous Symbol]
    stm32g0xx_hal_uart.o(.ARM.exidx.text.UART_TxISR_16BIT_FIFOEN) refers to stm32g0xx_hal_uart.o(.text.UART_TxISR_16BIT_FIFOEN) for [Anonymous Symbol]
    stm32g0xx_hal_uart.o(.ARM.exidx.text.UART_TxISR_8BIT_FIFOEN) refers to stm32g0xx_hal_uart.o(.text.UART_TxISR_8BIT_FIFOEN) for [Anonymous Symbol]
    stm32g0xx_hal_uart.o(.ARM.exidx.text.UART_TxISR_16BIT) refers to stm32g0xx_hal_uart.o(.text.UART_TxISR_16BIT) for [Anonymous Symbol]
    stm32g0xx_hal_uart.o(.ARM.exidx.text.UART_TxISR_8BIT) refers to stm32g0xx_hal_uart.o(.text.UART_TxISR_8BIT) for [Anonymous Symbol]
    stm32g0xx_hal_uart.o(.text.HAL_UART_Receive_IT) refers to stm32g0xx_hal_uart.o(.text.UART_Start_Receive_IT) for UART_Start_Receive_IT
    stm32g0xx_hal_uart.o(.ARM.exidx.text.HAL_UART_Receive_IT) refers to stm32g0xx_hal_uart.o(.text.HAL_UART_Receive_IT) for [Anonymous Symbol]
    stm32g0xx_hal_uart.o(.text.UART_Start_Receive_IT) refers to stm32g0xx_hal_uart.o(.text.UART_RxISR_16BIT_FIFOEN) for UART_RxISR_16BIT_FIFOEN
    stm32g0xx_hal_uart.o(.text.UART_Start_Receive_IT) refers to stm32g0xx_hal_uart.o(.text.UART_RxISR_8BIT_FIFOEN) for UART_RxISR_8BIT_FIFOEN
    stm32g0xx_hal_uart.o(.text.UART_Start_Receive_IT) refers to stm32g0xx_hal_uart.o(.text.UART_RxISR_16BIT) for UART_RxISR_16BIT
    stm32g0xx_hal_uart.o(.text.UART_Start_Receive_IT) refers to stm32g0xx_hal_uart.o(.text.UART_RxISR_8BIT) for UART_RxISR_8BIT
    stm32g0xx_hal_uart.o(.ARM.exidx.text.UART_Start_Receive_IT) refers to stm32g0xx_hal_uart.o(.text.UART_Start_Receive_IT) for [Anonymous Symbol]
    stm32g0xx_hal_uart.o(.text.HAL_UART_Transmit_DMA) refers to stm32g0xx_hal_dma.o(.text.HAL_DMA_Start_IT) for HAL_DMA_Start_IT
    stm32g0xx_hal_uart.o(.text.HAL_UART_Transmit_DMA) refers to stm32g0xx_hal_uart.o(.text.UART_DMAError) for UART_DMAError
    stm32g0xx_hal_uart.o(.text.HAL_UART_Transmit_DMA) refers to stm32g0xx_hal_uart.o(.text.UART_DMATxHalfCplt) for UART_DMATxHalfCplt
    stm32g0xx_hal_uart.o(.text.HAL_UART_Transmit_DMA) refers to stm32g0xx_hal_uart.o(.text.UART_DMATransmitCplt) for UART_DMATransmitCplt
    stm32g0xx_hal_uart.o(.ARM.exidx.text.HAL_UART_Transmit_DMA) refers to stm32g0xx_hal_uart.o(.text.HAL_UART_Transmit_DMA) for [Anonymous Symbol]
    stm32g0xx_hal_uart.o(.text.UART_DMATransmitCplt) refers to stm32g0xx_hal_uart.o(.text.HAL_UART_TxCpltCallback) for HAL_UART_TxCpltCallback
    stm32g0xx_hal_uart.o(.ARM.exidx.text.UART_DMATransmitCplt) refers to stm32g0xx_hal_uart.o(.text.UART_DMATransmitCplt) for [Anonymous Symbol]
    stm32g0xx_hal_uart.o(.text.UART_DMATxHalfCplt) refers to stm32g0xx_hal_uart.o(.text.HAL_UART_TxHalfCpltCallback) for HAL_UART_TxHalfCpltCallback
    stm32g0xx_hal_uart.o(.ARM.exidx.text.UART_DMATxHalfCplt) refers to stm32g0xx_hal_uart.o(.text.UART_DMATxHalfCplt) for [Anonymous Symbol]
    stm32g0xx_hal_uart.o(.text.UART_DMAError) refers to stm32g0xx_hal_uart.o(.text.UART_EndTxTransfer) for UART_EndTxTransfer
    stm32g0xx_hal_uart.o(.text.UART_DMAError) refers to stm32g0xx_hal_uart.o(.text.UART_EndRxTransfer) for UART_EndRxTransfer
    stm32g0xx_hal_uart.o(.text.UART_DMAError) refers to stm32g0xx_hal_uart.o(.text.HAL_UART_ErrorCallback) for HAL_UART_ErrorCallback
    stm32g0xx_hal_uart.o(.ARM.exidx.text.UART_DMAError) refers to stm32g0xx_hal_uart.o(.text.UART_DMAError) for [Anonymous Symbol]
    stm32g0xx_hal_uart.o(.text.HAL_UART_Receive_DMA) refers to stm32g0xx_hal_uart.o(.text.UART_Start_Receive_DMA) for UART_Start_Receive_DMA
    stm32g0xx_hal_uart.o(.ARM.exidx.text.HAL_UART_Receive_DMA) refers to stm32g0xx_hal_uart.o(.text.HAL_UART_Receive_DMA) for [Anonymous Symbol]
    stm32g0xx_hal_uart.o(.text.UART_Start_Receive_DMA) refers to stm32g0xx_hal_dma.o(.text.HAL_DMA_Start_IT) for HAL_DMA_Start_IT
    stm32g0xx_hal_uart.o(.text.UART_Start_Receive_DMA) refers to stm32g0xx_hal_uart.o(.text.UART_DMAError) for UART_DMAError
    stm32g0xx_hal_uart.o(.text.UART_Start_Receive_DMA) refers to stm32g0xx_hal_uart.o(.text.UART_DMARxHalfCplt) for UART_DMARxHalfCplt
    stm32g0xx_hal_uart.o(.text.UART_Start_Receive_DMA) refers to stm32g0xx_hal_uart.o(.text.UART_DMAReceiveCplt) for UART_DMAReceiveCplt
    stm32g0xx_hal_uart.o(.ARM.exidx.text.UART_Start_Receive_DMA) refers to stm32g0xx_hal_uart.o(.text.UART_Start_Receive_DMA) for [Anonymous Symbol]
    stm32g0xx_hal_uart.o(.ARM.exidx.text.HAL_UART_DMAPause) refers to stm32g0xx_hal_uart.o(.text.HAL_UART_DMAPause) for [Anonymous Symbol]
    stm32g0xx_hal_uart.o(.ARM.exidx.text.HAL_UART_DMAResume) refers to stm32g0xx_hal_uart.o(.text.HAL_UART_DMAResume) for [Anonymous Symbol]
    stm32g0xx_hal_uart.o(.text.HAL_UART_DMAStop) refers to stm32g0xx_hal_dma.o(.text.HAL_DMA_Abort) for HAL_DMA_Abort
    stm32g0xx_hal_uart.o(.text.HAL_UART_DMAStop) refers to stm32g0xx_hal_dma.o(.text.HAL_DMA_GetError) for HAL_DMA_GetError
    stm32g0xx_hal_uart.o(.text.HAL_UART_DMAStop) refers to stm32g0xx_hal_uart.o(.text.UART_EndTxTransfer) for UART_EndTxTransfer
    stm32g0xx_hal_uart.o(.text.HAL_UART_DMAStop) refers to stm32g0xx_hal_uart.o(.text.UART_EndRxTransfer) for UART_EndRxTransfer
    stm32g0xx_hal_uart.o(.ARM.exidx.text.HAL_UART_DMAStop) refers to stm32g0xx_hal_uart.o(.text.HAL_UART_DMAStop) for [Anonymous Symbol]
    stm32g0xx_hal_uart.o(.ARM.exidx.text.UART_EndTxTransfer) refers to stm32g0xx_hal_uart.o(.text.UART_EndTxTransfer) for [Anonymous Symbol]
    stm32g0xx_hal_uart.o(.ARM.exidx.text.UART_EndRxTransfer) refers to stm32g0xx_hal_uart.o(.text.UART_EndRxTransfer) for [Anonymous Symbol]
    stm32g0xx_hal_uart.o(.text.HAL_UART_Abort) refers to stm32g0xx_hal_dma.o(.text.HAL_DMA_Abort) for HAL_DMA_Abort
    stm32g0xx_hal_uart.o(.text.HAL_UART_Abort) refers to stm32g0xx_hal_dma.o(.text.HAL_DMA_GetError) for HAL_DMA_GetError
    stm32g0xx_hal_uart.o(.ARM.exidx.text.HAL_UART_Abort) refers to stm32g0xx_hal_uart.o(.text.HAL_UART_Abort) for [Anonymous Symbol]
    stm32g0xx_hal_uart.o(.text.HAL_UART_AbortTransmit) refers to stm32g0xx_hal_dma.o(.text.HAL_DMA_Abort) for HAL_DMA_Abort
    stm32g0xx_hal_uart.o(.text.HAL_UART_AbortTransmit) refers to stm32g0xx_hal_dma.o(.text.HAL_DMA_GetError) for HAL_DMA_GetError
    stm32g0xx_hal_uart.o(.ARM.exidx.text.HAL_UART_AbortTransmit) refers to stm32g0xx_hal_uart.o(.text.HAL_UART_AbortTransmit) for [Anonymous Symbol]
    stm32g0xx_hal_uart.o(.text.HAL_UART_AbortReceive) refers to stm32g0xx_hal_dma.o(.text.HAL_DMA_Abort) for HAL_DMA_Abort
    stm32g0xx_hal_uart.o(.text.HAL_UART_AbortReceive) refers to stm32g0xx_hal_dma.o(.text.HAL_DMA_GetError) for HAL_DMA_GetError
    stm32g0xx_hal_uart.o(.ARM.exidx.text.HAL_UART_AbortReceive) refers to stm32g0xx_hal_uart.o(.text.HAL_UART_AbortReceive) for [Anonymous Symbol]
    stm32g0xx_hal_uart.o(.text.HAL_UART_Abort_IT) refers to stm32g0xx_hal_dma.o(.text.HAL_DMA_Abort_IT) for HAL_DMA_Abort_IT
    stm32g0xx_hal_uart.o(.text.HAL_UART_Abort_IT) refers to stm32g0xx_hal_uart.o(.text.HAL_UART_AbortCpltCallback) for HAL_UART_AbortCpltCallback
    stm32g0xx_hal_uart.o(.text.HAL_UART_Abort_IT) refers to stm32g0xx_hal_uart.o(.text.UART_DMATxAbortCallback) for UART_DMATxAbortCallback
    stm32g0xx_hal_uart.o(.text.HAL_UART_Abort_IT) refers to stm32g0xx_hal_uart.o(.text.UART_DMARxAbortCallback) for UART_DMARxAbortCallback
    stm32g0xx_hal_uart.o(.ARM.exidx.text.HAL_UART_Abort_IT) refers to stm32g0xx_hal_uart.o(.text.HAL_UART_Abort_IT) for [Anonymous Symbol]
    stm32g0xx_hal_uart.o(.text.UART_DMATxAbortCallback) refers to stm32g0xx_hal_uart.o(.text.HAL_UART_AbortCpltCallback) for HAL_UART_AbortCpltCallback
    stm32g0xx_hal_uart.o(.ARM.exidx.text.UART_DMATxAbortCallback) refers to stm32g0xx_hal_uart.o(.text.UART_DMATxAbortCallback) for [Anonymous Symbol]
    stm32g0xx_hal_uart.o(.text.UART_DMARxAbortCallback) refers to stm32g0xx_hal_uart.o(.text.HAL_UART_AbortCpltCallback) for HAL_UART_AbortCpltCallback
    stm32g0xx_hal_uart.o(.ARM.exidx.text.UART_DMARxAbortCallback) refers to stm32g0xx_hal_uart.o(.text.UART_DMARxAbortCallback) for [Anonymous Symbol]
    stm32g0xx_hal_uart.o(.ARM.exidx.text.HAL_UART_AbortCpltCallback) refers to stm32g0xx_hal_uart.o(.text.HAL_UART_AbortCpltCallback) for [Anonymous Symbol]
    stm32g0xx_hal_uart.o(.text.HAL_UART_AbortTransmit_IT) refers to stm32g0xx_hal_uart.o(.text.HAL_UART_AbortTransmitCpltCallback) for HAL_UART_AbortTransmitCpltCallback
    stm32g0xx_hal_uart.o(.text.HAL_UART_AbortTransmit_IT) refers to stm32g0xx_hal_dma.o(.text.HAL_DMA_Abort_IT) for HAL_DMA_Abort_IT
    stm32g0xx_hal_uart.o(.text.HAL_UART_AbortTransmit_IT) refers to stm32g0xx_hal_uart.o(.text.UART_DMATxOnlyAbortCallback) for UART_DMATxOnlyAbortCallback
    stm32g0xx_hal_uart.o(.ARM.exidx.text.HAL_UART_AbortTransmit_IT) refers to stm32g0xx_hal_uart.o(.text.HAL_UART_AbortTransmit_IT) for [Anonymous Symbol]
    stm32g0xx_hal_uart.o(.text.UART_DMATxOnlyAbortCallback) refers to stm32g0xx_hal_uart.o(.text.HAL_UART_AbortTransmitCpltCallback) for HAL_UART_AbortTransmitCpltCallback
    stm32g0xx_hal_uart.o(.ARM.exidx.text.UART_DMATxOnlyAbortCallback) refers to stm32g0xx_hal_uart.o(.text.UART_DMATxOnlyAbortCallback) for [Anonymous Symbol]
    stm32g0xx_hal_uart.o(.ARM.exidx.text.HAL_UART_AbortTransmitCpltCallback) refers to stm32g0xx_hal_uart.o(.text.HAL_UART_AbortTransmitCpltCallback) for [Anonymous Symbol]
    stm32g0xx_hal_uart.o(.text.HAL_UART_AbortReceive_IT) refers to stm32g0xx_hal_uart.o(.text.HAL_UART_AbortReceiveCpltCallback) for HAL_UART_AbortReceiveCpltCallback
    stm32g0xx_hal_uart.o(.text.HAL_UART_AbortReceive_IT) refers to stm32g0xx_hal_dma.o(.text.HAL_DMA_Abort_IT) for HAL_DMA_Abort_IT
    stm32g0xx_hal_uart.o(.text.HAL_UART_AbortReceive_IT) refers to stm32g0xx_hal_uart.o(.text.UART_DMARxOnlyAbortCallback) for UART_DMARxOnlyAbortCallback
    stm32g0xx_hal_uart.o(.ARM.exidx.text.HAL_UART_AbortReceive_IT) refers to stm32g0xx_hal_uart.o(.text.HAL_UART_AbortReceive_IT) for [Anonymous Symbol]
    stm32g0xx_hal_uart.o(.text.UART_DMARxOnlyAbortCallback) refers to stm32g0xx_hal_uart.o(.text.HAL_UART_AbortReceiveCpltCallback) for HAL_UART_AbortReceiveCpltCallback
    stm32g0xx_hal_uart.o(.ARM.exidx.text.UART_DMARxOnlyAbortCallback) refers to stm32g0xx_hal_uart.o(.text.UART_DMARxOnlyAbortCallback) for [Anonymous Symbol]
    stm32g0xx_hal_uart.o(.ARM.exidx.text.HAL_UART_AbortReceiveCpltCallback) refers to stm32g0xx_hal_uart.o(.text.HAL_UART_AbortReceiveCpltCallback) for [Anonymous Symbol]
    stm32g0xx_hal_uart.o(.text.HAL_UART_IRQHandler) refers to stm32g0xx_hal_uart.o(.text.UART_EndRxTransfer) for UART_EndRxTransfer
    stm32g0xx_hal_uart.o(.text.HAL_UART_IRQHandler) refers to stm32g0xx_hal_dma.o(.text.HAL_DMA_Abort_IT) for HAL_DMA_Abort_IT
    stm32g0xx_hal_uart.o(.text.HAL_UART_IRQHandler) refers to stm32g0xx_hal_uart_ex.o(.text.HAL_UARTEx_WakeupCallback) for HAL_UARTEx_WakeupCallback
    stm32g0xx_hal_uart.o(.text.HAL_UART_IRQHandler) refers to stm32g0xx_hal_dma.o(.text.HAL_DMA_Abort) for HAL_DMA_Abort
    stm32g0xx_hal_uart.o(.text.HAL_UART_IRQHandler) refers to stm32g0xx_hal_uart.o(.text.HAL_UARTEx_RxEventCallback) for HAL_UARTEx_RxEventCallback
    stm32g0xx_hal_uart.o(.text.HAL_UART_IRQHandler) refers to stm32g0xx_hal_uart.o(.text.HAL_UART_ErrorCallback) for HAL_UART_ErrorCallback
    stm32g0xx_hal_uart.o(.text.HAL_UART_IRQHandler) refers to stm32g0xx_hal_uart_ex.o(.text.HAL_UARTEx_TxFifoEmptyCallback) for HAL_UARTEx_TxFifoEmptyCallback
    stm32g0xx_hal_uart.o(.text.HAL_UART_IRQHandler) refers to stm32g0xx_hal_uart.o(.text.UART_EndTransmit_IT) for UART_EndTransmit_IT
    stm32g0xx_hal_uart.o(.text.HAL_UART_IRQHandler) refers to stm32g0xx_hal_uart_ex.o(.text.HAL_UARTEx_RxFifoFullCallback) for HAL_UARTEx_RxFifoFullCallback
    stm32g0xx_hal_uart.o(.text.HAL_UART_IRQHandler) refers to stm32g0xx_hal_uart.o(.text.UART_DMAAbortOnError) for UART_DMAAbortOnError
    stm32g0xx_hal_uart.o(.ARM.exidx.text.HAL_UART_IRQHandler) refers to stm32g0xx_hal_uart.o(.text.HAL_UART_IRQHandler) for [Anonymous Symbol]
    stm32g0xx_hal_uart.o(.text.UART_DMAAbortOnError) refers to stm32g0xx_hal_uart.o(.text.HAL_UART_ErrorCallback) for HAL_UART_ErrorCallback
    stm32g0xx_hal_uart.o(.ARM.exidx.text.UART_DMAAbortOnError) refers to stm32g0xx_hal_uart.o(.text.UART_DMAAbortOnError) for [Anonymous Symbol]
    stm32g0xx_hal_uart.o(.ARM.exidx.text.HAL_UART_ErrorCallback) refers to stm32g0xx_hal_uart.o(.text.HAL_UART_ErrorCallback) for [Anonymous Symbol]
    stm32g0xx_hal_uart.o(.ARM.exidx.text.HAL_UARTEx_RxEventCallback) refers to stm32g0xx_hal_uart.o(.text.HAL_UARTEx_RxEventCallback) for [Anonymous Symbol]
    stm32g0xx_hal_uart.o(.text.UART_EndTransmit_IT) refers to stm32g0xx_hal_uart.o(.text.HAL_UART_TxCpltCallback) for HAL_UART_TxCpltCallback
    stm32g0xx_hal_uart.o(.ARM.exidx.text.UART_EndTransmit_IT) refers to stm32g0xx_hal_uart.o(.text.UART_EndTransmit_IT) for [Anonymous Symbol]
    stm32g0xx_hal_uart.o(.ARM.exidx.text.HAL_UART_TxCpltCallback) refers to stm32g0xx_hal_uart.o(.text.HAL_UART_TxCpltCallback) for [Anonymous Symbol]
    stm32g0xx_hal_uart.o(.ARM.exidx.text.HAL_UART_TxHalfCpltCallback) refers to stm32g0xx_hal_uart.o(.text.HAL_UART_TxHalfCpltCallback) for [Anonymous Symbol]
    stm32g0xx_hal_uart.o(.ARM.exidx.text.HAL_UART_RxCpltCallback) refers to stm32g0xx_hal_uart.o(.text.HAL_UART_RxCpltCallback) for [Anonymous Symbol]
    stm32g0xx_hal_uart.o(.ARM.exidx.text.HAL_UART_RxHalfCpltCallback) refers to stm32g0xx_hal_uart.o(.text.HAL_UART_RxHalfCpltCallback) for [Anonymous Symbol]
    stm32g0xx_hal_uart.o(.ARM.exidx.text.HAL_UART_ReceiverTimeout_Config) refers to stm32g0xx_hal_uart.o(.text.HAL_UART_ReceiverTimeout_Config) for [Anonymous Symbol]
    stm32g0xx_hal_uart.o(.ARM.exidx.text.HAL_UART_EnableReceiverTimeout) refers to stm32g0xx_hal_uart.o(.text.HAL_UART_EnableReceiverTimeout) for [Anonymous Symbol]
    stm32g0xx_hal_uart.o(.ARM.exidx.text.HAL_UART_DisableReceiverTimeout) refers to stm32g0xx_hal_uart.o(.text.HAL_UART_DisableReceiverTimeout) for [Anonymous Symbol]
    stm32g0xx_hal_uart.o(.text.HAL_MultiProcessor_EnableMuteMode) refers to stm32g0xx_hal_uart.o(.text.UART_CheckIdleState) for UART_CheckIdleState
    stm32g0xx_hal_uart.o(.ARM.exidx.text.HAL_MultiProcessor_EnableMuteMode) refers to stm32g0xx_hal_uart.o(.text.HAL_MultiProcessor_EnableMuteMode) for [Anonymous Symbol]
    stm32g0xx_hal_uart.o(.text.HAL_MultiProcessor_DisableMuteMode) refers to stm32g0xx_hal_uart.o(.text.UART_CheckIdleState) for UART_CheckIdleState
    stm32g0xx_hal_uart.o(.ARM.exidx.text.HAL_MultiProcessor_DisableMuteMode) refers to stm32g0xx_hal_uart.o(.text.HAL_MultiProcessor_DisableMuteMode) for [Anonymous Symbol]
    stm32g0xx_hal_uart.o(.ARM.exidx.text.HAL_MultiProcessor_EnterMuteMode) refers to stm32g0xx_hal_uart.o(.text.HAL_MultiProcessor_EnterMuteMode) for [Anonymous Symbol]
    stm32g0xx_hal_uart.o(.ARM.exidx.text.HAL_HalfDuplex_EnableTransmitter) refers to stm32g0xx_hal_uart.o(.text.HAL_HalfDuplex_EnableTransmitter) for [Anonymous Symbol]
    stm32g0xx_hal_uart.o(.ARM.exidx.text.HAL_HalfDuplex_EnableReceiver) refers to stm32g0xx_hal_uart.o(.text.HAL_HalfDuplex_EnableReceiver) for [Anonymous Symbol]
    stm32g0xx_hal_uart.o(.ARM.exidx.text.HAL_LIN_SendBreak) refers to stm32g0xx_hal_uart.o(.text.HAL_LIN_SendBreak) for [Anonymous Symbol]
    stm32g0xx_hal_uart.o(.ARM.exidx.text.HAL_UART_GetState) refers to stm32g0xx_hal_uart.o(.text.HAL_UART_GetState) for [Anonymous Symbol]
    stm32g0xx_hal_uart.o(.ARM.exidx.text.HAL_UART_GetError) refers to stm32g0xx_hal_uart.o(.text.HAL_UART_GetError) for [Anonymous Symbol]
    stm32g0xx_hal_uart.o(.text.UART_RxISR_16BIT_FIFOEN) refers to stm32g0xx_hal_uart.o(.text.HAL_UART_ErrorCallback) for HAL_UART_ErrorCallback
    stm32g0xx_hal_uart.o(.text.UART_RxISR_16BIT_FIFOEN) refers to stm32g0xx_hal_uart.o(.text.HAL_UARTEx_RxEventCallback) for HAL_UARTEx_RxEventCallback
    stm32g0xx_hal_uart.o(.text.UART_RxISR_16BIT_FIFOEN) refers to debug.o(.text.HAL_UART_RxCpltCallback) for HAL_UART_RxCpltCallback
    stm32g0xx_hal_uart.o(.text.UART_RxISR_16BIT_FIFOEN) refers to stm32g0xx_hal_uart.o(.text.UART_RxISR_16BIT) for UART_RxISR_16BIT
    stm32g0xx_hal_uart.o(.ARM.exidx.text.UART_RxISR_16BIT_FIFOEN) refers to stm32g0xx_hal_uart.o(.text.UART_RxISR_16BIT_FIFOEN) for [Anonymous Symbol]
    stm32g0xx_hal_uart.o(.text.UART_RxISR_8BIT_FIFOEN) refers to stm32g0xx_hal_uart.o(.text.HAL_UART_ErrorCallback) for HAL_UART_ErrorCallback
    stm32g0xx_hal_uart.o(.text.UART_RxISR_8BIT_FIFOEN) refers to stm32g0xx_hal_uart.o(.text.HAL_UARTEx_RxEventCallback) for HAL_UARTEx_RxEventCallback
    stm32g0xx_hal_uart.o(.text.UART_RxISR_8BIT_FIFOEN) refers to debug.o(.text.HAL_UART_RxCpltCallback) for HAL_UART_RxCpltCallback
    stm32g0xx_hal_uart.o(.text.UART_RxISR_8BIT_FIFOEN) refers to stm32g0xx_hal_uart.o(.text.UART_RxISR_8BIT) for UART_RxISR_8BIT
    stm32g0xx_hal_uart.o(.ARM.exidx.text.UART_RxISR_8BIT_FIFOEN) refers to stm32g0xx_hal_uart.o(.text.UART_RxISR_8BIT_FIFOEN) for [Anonymous Symbol]
    stm32g0xx_hal_uart.o(.text.UART_RxISR_16BIT) refers to stm32g0xx_hal_uart.o(.text.HAL_UARTEx_RxEventCallback) for HAL_UARTEx_RxEventCallback
    stm32g0xx_hal_uart.o(.text.UART_RxISR_16BIT) refers to debug.o(.text.HAL_UART_RxCpltCallback) for HAL_UART_RxCpltCallback
    stm32g0xx_hal_uart.o(.ARM.exidx.text.UART_RxISR_16BIT) refers to stm32g0xx_hal_uart.o(.text.UART_RxISR_16BIT) for [Anonymous Symbol]
    stm32g0xx_hal_uart.o(.text.UART_RxISR_8BIT) refers to stm32g0xx_hal_uart.o(.text.HAL_UARTEx_RxEventCallback) for HAL_UARTEx_RxEventCallback
    stm32g0xx_hal_uart.o(.text.UART_RxISR_8BIT) refers to debug.o(.text.HAL_UART_RxCpltCallback) for HAL_UART_RxCpltCallback
    stm32g0xx_hal_uart.o(.ARM.exidx.text.UART_RxISR_8BIT) refers to stm32g0xx_hal_uart.o(.text.UART_RxISR_8BIT) for [Anonymous Symbol]
    stm32g0xx_hal_uart.o(.text.UART_DMAReceiveCplt) refers to stm32g0xx_hal_uart.o(.text.HAL_UARTEx_RxEventCallback) for HAL_UARTEx_RxEventCallback
    stm32g0xx_hal_uart.o(.text.UART_DMAReceiveCplt) refers to debug.o(.text.HAL_UART_RxCpltCallback) for HAL_UART_RxCpltCallback
    stm32g0xx_hal_uart.o(.ARM.exidx.text.UART_DMAReceiveCplt) refers to stm32g0xx_hal_uart.o(.text.UART_DMAReceiveCplt) for [Anonymous Symbol]
    stm32g0xx_hal_uart.o(.text.UART_DMARxHalfCplt) refers to stm32g0xx_hal_uart.o(.text.HAL_UARTEx_RxEventCallback) for HAL_UARTEx_RxEventCallback
    stm32g0xx_hal_uart.o(.text.UART_DMARxHalfCplt) refers to stm32g0xx_hal_uart.o(.text.HAL_UART_RxHalfCpltCallback) for HAL_UART_RxHalfCpltCallback
    stm32g0xx_hal_uart.o(.ARM.exidx.text.UART_DMARxHalfCplt) refers to stm32g0xx_hal_uart.o(.text.UART_DMARxHalfCplt) for [Anonymous Symbol]
    stm32g0xx_hal_uart_ex.o(.text.HAL_RS485Ex_Init) refers to usart.o(.text.HAL_UART_MspInit) for HAL_UART_MspInit
    stm32g0xx_hal_uart_ex.o(.text.HAL_RS485Ex_Init) refers to stm32g0xx_hal_uart.o(.text.UART_SetConfig) for UART_SetConfig
    stm32g0xx_hal_uart_ex.o(.text.HAL_RS485Ex_Init) refers to stm32g0xx_hal_uart.o(.text.UART_AdvFeatureConfig) for UART_AdvFeatureConfig
    stm32g0xx_hal_uart_ex.o(.text.HAL_RS485Ex_Init) refers to stm32g0xx_hal_uart.o(.text.UART_CheckIdleState) for UART_CheckIdleState
    stm32g0xx_hal_uart_ex.o(.ARM.exidx.text.HAL_RS485Ex_Init) refers to stm32g0xx_hal_uart_ex.o(.text.HAL_RS485Ex_Init) for [Anonymous Symbol]
    stm32g0xx_hal_uart_ex.o(.ARM.exidx.text.HAL_UARTEx_WakeupCallback) refers to stm32g0xx_hal_uart_ex.o(.text.HAL_UARTEx_WakeupCallback) for [Anonymous Symbol]
    stm32g0xx_hal_uart_ex.o(.ARM.exidx.text.HAL_UARTEx_RxFifoFullCallback) refers to stm32g0xx_hal_uart_ex.o(.text.HAL_UARTEx_RxFifoFullCallback) for [Anonymous Symbol]
    stm32g0xx_hal_uart_ex.o(.ARM.exidx.text.HAL_UARTEx_TxFifoEmptyCallback) refers to stm32g0xx_hal_uart_ex.o(.text.HAL_UARTEx_TxFifoEmptyCallback) for [Anonymous Symbol]
    stm32g0xx_hal_uart_ex.o(.text.HAL_MultiProcessorEx_AddressLength_Set) refers to stm32g0xx_hal_uart.o(.text.UART_CheckIdleState) for UART_CheckIdleState
    stm32g0xx_hal_uart_ex.o(.ARM.exidx.text.HAL_MultiProcessorEx_AddressLength_Set) refers to stm32g0xx_hal_uart_ex.o(.text.HAL_MultiProcessorEx_AddressLength_Set) for [Anonymous Symbol]
    stm32g0xx_hal_uart_ex.o(.text.HAL_UARTEx_StopModeWakeUpSourceConfig) refers to stm32g0xx_hal_uart_ex.o(.text.UARTEx_Wakeup_AddressConfig) for UARTEx_Wakeup_AddressConfig
    stm32g0xx_hal_uart_ex.o(.text.HAL_UARTEx_StopModeWakeUpSourceConfig) refers to stm32g0xx_hal.o(.text.HAL_GetTick) for HAL_GetTick
    stm32g0xx_hal_uart_ex.o(.text.HAL_UARTEx_StopModeWakeUpSourceConfig) refers to stm32g0xx_hal_uart.o(.text.UART_WaitOnFlagUntilTimeout) for UART_WaitOnFlagUntilTimeout
    stm32g0xx_hal_uart_ex.o(.ARM.exidx.text.HAL_UARTEx_StopModeWakeUpSourceConfig) refers to stm32g0xx_hal_uart_ex.o(.text.HAL_UARTEx_StopModeWakeUpSourceConfig) for [Anonymous Symbol]
    stm32g0xx_hal_uart_ex.o(.ARM.exidx.text.UARTEx_Wakeup_AddressConfig) refers to stm32g0xx_hal_uart_ex.o(.text.UARTEx_Wakeup_AddressConfig) for [Anonymous Symbol]
    stm32g0xx_hal_uart_ex.o(.ARM.exidx.text.HAL_UARTEx_EnableStopMode) refers to stm32g0xx_hal_uart_ex.o(.text.HAL_UARTEx_EnableStopMode) for [Anonymous Symbol]
    stm32g0xx_hal_uart_ex.o(.ARM.exidx.text.HAL_UARTEx_DisableStopMode) refers to stm32g0xx_hal_uart_ex.o(.text.HAL_UARTEx_DisableStopMode) for [Anonymous Symbol]
    stm32g0xx_hal_uart_ex.o(.text.HAL_UARTEx_EnableFifoMode) refers to stm32g0xx_hal_uart_ex.o(.text.UARTEx_SetNbDataToProcess) for UARTEx_SetNbDataToProcess
    stm32g0xx_hal_uart_ex.o(.ARM.exidx.text.HAL_UARTEx_EnableFifoMode) refers to stm32g0xx_hal_uart_ex.o(.text.HAL_UARTEx_EnableFifoMode) for [Anonymous Symbol]
    stm32g0xx_hal_uart_ex.o(.text.UARTEx_SetNbDataToProcess) refers to uidiv_div0.o(.text) for __aeabi_uidiv
    stm32g0xx_hal_uart_ex.o(.text.UARTEx_SetNbDataToProcess) refers to stm32g0xx_hal_uart_ex.o(.rodata.cst8) for [Anonymous Symbol]
    stm32g0xx_hal_uart_ex.o(.ARM.exidx.text.UARTEx_SetNbDataToProcess) refers to stm32g0xx_hal_uart_ex.o(.text.UARTEx_SetNbDataToProcess) for [Anonymous Symbol]
    stm32g0xx_hal_uart_ex.o(.ARM.exidx.text.HAL_UARTEx_DisableFifoMode) refers to stm32g0xx_hal_uart_ex.o(.text.HAL_UARTEx_DisableFifoMode) for [Anonymous Symbol]
    stm32g0xx_hal_uart_ex.o(.text.HAL_UARTEx_SetTxFifoThreshold) refers to stm32g0xx_hal_uart_ex.o(.text.UARTEx_SetNbDataToProcess) for UARTEx_SetNbDataToProcess
    stm32g0xx_hal_uart_ex.o(.ARM.exidx.text.HAL_UARTEx_SetTxFifoThreshold) refers to stm32g0xx_hal_uart_ex.o(.text.HAL_UARTEx_SetTxFifoThreshold) for [Anonymous Symbol]
    stm32g0xx_hal_uart_ex.o(.text.HAL_UARTEx_SetRxFifoThreshold) refers to stm32g0xx_hal_uart_ex.o(.text.UARTEx_SetNbDataToProcess) for UARTEx_SetNbDataToProcess
    stm32g0xx_hal_uart_ex.o(.ARM.exidx.text.HAL_UARTEx_SetRxFifoThreshold) refers to stm32g0xx_hal_uart_ex.o(.text.HAL_UARTEx_SetRxFifoThreshold) for [Anonymous Symbol]
    stm32g0xx_hal_uart_ex.o(.text.HAL_UARTEx_ReceiveToIdle) refers to stm32g0xx_hal.o(.text.HAL_GetTick) for HAL_GetTick
    stm32g0xx_hal_uart_ex.o(.ARM.exidx.text.HAL_UARTEx_ReceiveToIdle) refers to stm32g0xx_hal_uart_ex.o(.text.HAL_UARTEx_ReceiveToIdle) for [Anonymous Symbol]
    stm32g0xx_hal_uart_ex.o(.text.HAL_UARTEx_ReceiveToIdle_IT) refers to stm32g0xx_hal_uart.o(.text.UART_Start_Receive_IT) for UART_Start_Receive_IT
    stm32g0xx_hal_uart_ex.o(.ARM.exidx.text.HAL_UARTEx_ReceiveToIdle_IT) refers to stm32g0xx_hal_uart_ex.o(.text.HAL_UARTEx_ReceiveToIdle_IT) for [Anonymous Symbol]
    stm32g0xx_hal_uart_ex.o(.text.HAL_UARTEx_ReceiveToIdle_DMA) refers to stm32g0xx_hal_uart.o(.text.UART_Start_Receive_DMA) for UART_Start_Receive_DMA
    stm32g0xx_hal_uart_ex.o(.ARM.exidx.text.HAL_UARTEx_ReceiveToIdle_DMA) refers to stm32g0xx_hal_uart_ex.o(.text.HAL_UARTEx_ReceiveToIdle_DMA) for [Anonymous Symbol]
    system_stm32g0xx.o(.ARM.exidx.text.SystemInit) refers to system_stm32g0xx.o(.text.SystemInit) for [Anonymous Symbol]
    system_stm32g0xx.o(.text.SystemCoreClockUpdate) refers to uidiv_div0.o(.text) for __aeabi_uidiv
    system_stm32g0xx.o(.text.SystemCoreClockUpdate) refers to system_stm32g0xx.o(.data.SystemCoreClock) for SystemCoreClock
    system_stm32g0xx.o(.text.SystemCoreClockUpdate) refers to system_stm32g0xx.o(.rodata.AHBPrescTable) for AHBPrescTable
    system_stm32g0xx.o(.ARM.exidx.text.SystemCoreClockUpdate) refers to system_stm32g0xx.o(.text.SystemCoreClockUpdate) for [Anonymous Symbol]
    powermanagement.o(.text.SystemEnterLowerPower) refers to debug.o(.text.os_time_get) for os_time_get
    powermanagement.o(.text.SystemEnterLowerPower) refers to uidiv_div0.o(.text) for __aeabi_uidiv
    powermanagement.o(.text.SystemEnterLowerPower) refers to printf6.o(i.__0printf$6) for __2printf
    powermanagement.o(.text.SystemEnterLowerPower) refers to puts.o(i.puts) for puts
    powermanagement.o(.text.SystemEnterLowerPower) refers to powermanagement.o(.text.LowPowerPreProc) for LowPowerPreProc
    powermanagement.o(.text.SystemEnterLowerPower) refers to stm32g0xx_hal.o(.text.HAL_Delay) for HAL_Delay
    powermanagement.o(.text.SystemEnterLowerPower) refers to powermanagement.o(.text.EnterSleepMode) for EnterSleepMode
    powermanagement.o(.text.SystemEnterLowerPower) refers to stm32g0xx_hal_pwr.o(.text.HAL_PWR_EnterSTOPMode) for HAL_PWR_EnterSTOPMode
    powermanagement.o(.text.SystemEnterLowerPower) refers to stm32g0xx_hal_pwr.o(.text.HAL_PWR_EnterSTANDBYMode) for HAL_PWR_EnterSTANDBYMode
    powermanagement.o(.text.SystemEnterLowerPower) refers to stm32g0xx_hal_pwr_ex.o(.text.HAL_PWREx_EnterSHUTDOWNMode) for HAL_PWREx_EnterSHUTDOWNMode
    powermanagement.o(.text.SystemEnterLowerPower) refers to powermanagement.o(.text.ExitLowPowerMode) for ExitLowPowerMode
    powermanagement.o(.text.SystemEnterLowerPower) refers to debug.o(.data.dbg_level) for dbg_level
    powermanagement.o(.text.SystemEnterLowerPower) refers to powermanagement.o(.rodata.str1.1) for [Anonymous Symbol]
    powermanagement.o(.ARM.exidx.text.SystemEnterLowerPower) refers to powermanagement.o(.text.SystemEnterLowerPower) for [Anonymous Symbol]
    powermanagement.o(.text.LowPowerPreProc) refers to debug.o(.text.os_time_get) for os_time_get
    powermanagement.o(.text.LowPowerPreProc) refers to uidiv_div0.o(.text) for __aeabi_uidiv
    powermanagement.o(.text.LowPowerPreProc) refers to printf6.o(i.__0printf$6) for __2printf
    powermanagement.o(.text.LowPowerPreProc) refers to puts.o(i.puts) for puts
    powermanagement.o(.text.LowPowerPreProc) refers to powermanagement.o(.text.CAN2_RX_CfgExtiMode) for CAN2_RX_CfgExtiMode
    powermanagement.o(.text.LowPowerPreProc) refers to stm32g0xx_hal_gpio.o(.text.HAL_GPIO_WritePin) for HAL_GPIO_WritePin
    powermanagement.o(.text.LowPowerPreProc) refers to stm32g0xx_hal_gpio.o(.text.HAL_GPIO_DeInit) for HAL_GPIO_DeInit
    powermanagement.o(.text.LowPowerPreProc) refers to stm32g0xx_hal_uart.o(.text.HAL_UART_DeInit) for HAL_UART_DeInit
    powermanagement.o(.text.LowPowerPreProc) refers to debug.o(.data.dbg_level) for dbg_level
    powermanagement.o(.text.LowPowerPreProc) refers to powermanagement.o(.rodata.str1.1) for [Anonymous Symbol]
    powermanagement.o(.text.LowPowerPreProc) refers to usart.o(.bss.huart1) for huart1
    powermanagement.o(.ARM.exidx.text.LowPowerPreProc) refers to powermanagement.o(.text.LowPowerPreProc) for [Anonymous Symbol]
    powermanagement.o(.text.EnterSleepMode) refers to stm32g0xx_hal.o(.text.HAL_SuspendTick) for HAL_SuspendTick
    powermanagement.o(.text.EnterSleepMode) refers to stm32g0xx_hal_pwr.o(.text.HAL_PWR_EnterSLEEPMode) for HAL_PWR_EnterSLEEPMode
    powermanagement.o(.text.EnterSleepMode) refers to stm32g0xx_hal.o(.text.HAL_ResumeTick) for HAL_ResumeTick
    powermanagement.o(.text.EnterSleepMode) refers to stm32g0xx_hal_pwr_ex.o(.text.HAL_PWREx_DisableLowPowerRunMode) for HAL_PWREx_DisableLowPowerRunMode
    powermanagement.o(.ARM.exidx.text.EnterSleepMode) refers to powermanagement.o(.text.EnterSleepMode) for [Anonymous Symbol]
    powermanagement.o(.text.ExitLowPowerMode) refers to main.o(.text.SystemClock_Config) for SystemClock_Config
    powermanagement.o(.text.ExitLowPowerMode) refers to usart.o(.text.MX_USART1_UART_Init) for MX_USART1_UART_Init
    powermanagement.o(.text.ExitLowPowerMode) refers to debug.o(.text.os_time_get) for os_time_get
    powermanagement.o(.text.ExitLowPowerMode) refers to uidiv_div0.o(.text) for __aeabi_uidiv
    powermanagement.o(.text.ExitLowPowerMode) refers to printf6.o(i.__0printf$6) for __2printf
    powermanagement.o(.text.ExitLowPowerMode) refers to puts.o(i.puts) for puts
    powermanagement.o(.text.ExitLowPowerMode) refers to gpio.o(.text.MX_GPIO_Init) for MX_GPIO_Init
    powermanagement.o(.text.ExitLowPowerMode) refers to stm32g0xx_hal_gpio.o(.text.HAL_GPIO_WritePin) for HAL_GPIO_WritePin
    powermanagement.o(.text.ExitLowPowerMode) refers to debug.o(.data.dbg_level) for dbg_level
    powermanagement.o(.text.ExitLowPowerMode) refers to powermanagement.o(.rodata.str1.1) for [Anonymous Symbol]
    powermanagement.o(.text.ExitLowPowerMode) refers to powermanagement.o(.data.wakeFlag) for wakeFlag
    powermanagement.o(.ARM.exidx.text.ExitLowPowerMode) refers to powermanagement.o(.text.ExitLowPowerMode) for [Anonymous Symbol]
    powermanagement.o(.text.CAN2_RX_CfgExtiMode) refers to stm32g0xx_hal_gpio.o(.text.HAL_GPIO_DeInit) for HAL_GPIO_DeInit
    powermanagement.o(.text.CAN2_RX_CfgExtiMode) refers to stm32g0xx_hal_gpio.o(.text.HAL_GPIO_Init) for HAL_GPIO_Init
    powermanagement.o(.text.CAN2_RX_CfgExtiMode) refers to stm32g0xx_hal_cortex.o(.text.HAL_NVIC_SetPriority) for HAL_NVIC_SetPriority
    powermanagement.o(.text.CAN2_RX_CfgExtiMode) refers to stm32g0xx_hal_cortex.o(.text.HAL_NVIC_EnableIRQ) for HAL_NVIC_EnableIRQ
    powermanagement.o(.ARM.exidx.text.CAN2_RX_CfgExtiMode) refers to powermanagement.o(.text.CAN2_RX_CfgExtiMode) for [Anonymous Symbol]
    debug.o(.text) refers (Special) to _scanf_int.o(.text) for _scanf_int
    debug.o(.text.os_time_get) refers (Special) to _scanf_int.o(.text) for _scanf_int
    debug.o(.text.os_time_get) refers to stm32g0xx_hal.o(.text.HAL_GetTick) for HAL_GetTick
    debug.o(.ARM.exidx.text.os_time_get) refers (Special) to _scanf_int.o(.text) for _scanf_int
    debug.o(.ARM.exidx.text.os_time_get) refers to debug.o(.text.os_time_get) for [Anonymous Symbol]
    debug.o(.text.HAL_UART_RxCpltCallback) refers (Special) to _scanf_int.o(.text) for _scanf_int
    debug.o(.text.HAL_UART_RxCpltCallback) refers to stm32g0xx_hal_uart.o(.text.HAL_UART_Receive_IT) for HAL_UART_Receive_IT
    debug.o(.text.HAL_UART_RxCpltCallback) refers to debug.o(.text.AT_DeviceHandle) for AT_DeviceHandle
    debug.o(.text.HAL_UART_RxCpltCallback) refers to debug.o(.bss.dbg_rxdata) for dbg_rxdata
    debug.o(.text.HAL_UART_RxCpltCallback) refers to debug.o(.bss.count) for [Anonymous Symbol]
    debug.o(.text.HAL_UART_RxCpltCallback) refers to debug.o(.bss.DataRxBuffer) for DataRxBuffer
    debug.o(.ARM.exidx.text.HAL_UART_RxCpltCallback) refers (Special) to _scanf_int.o(.text) for _scanf_int
    debug.o(.ARM.exidx.text.HAL_UART_RxCpltCallback) refers to debug.o(.text.HAL_UART_RxCpltCallback) for [Anonymous Symbol]
    debug.o(.text.AT_DeviceHandle) refers (Special) to _scanf_int.o(.text) for _scanf_int
    debug.o(.text.AT_DeviceHandle) refers to strlen.o(.text) for strlen
    debug.o(.text.AT_DeviceHandle) refers to strchr.o(.text) for strchr
    debug.o(.text.AT_DeviceHandle) refers to memseta.o(.text) for __aeabi_memclr4
    debug.o(.text.AT_DeviceHandle) refers to sscanf.o(.text) for sscanf
    debug.o(.text.AT_DeviceHandle) refers to debug.o(.text.os_time_get) for os_time_get
    debug.o(.text.AT_DeviceHandle) refers to uidiv_div0.o(.text) for __aeabi_uidiv
    debug.o(.text.AT_DeviceHandle) refers to printf6.o(i.__0printf$6) for __2printf
    debug.o(.text.AT_DeviceHandle) refers to puts.o(i.puts) for puts
    debug.o(.text.AT_DeviceHandle) refers to debug.o(.text.OnCfgDebug) for OnCfgDebug
    debug.o(.text.AT_DeviceHandle) refers to debug.o(.bss.count) for [Anonymous Symbol]
    debug.o(.text.AT_DeviceHandle) refers to debug.o(.bss.DataRxBuffer) for DataRxBuffer
    debug.o(.text.AT_DeviceHandle) refers to debug.o(.data.dbg_level) for dbg_level
    debug.o(.text.AT_DeviceHandle) refers to debug.o(.rodata.str1.1) for [Anonymous Symbol]
    debug.o(.ARM.exidx.text.AT_DeviceHandle) refers (Special) to _scanf_int.o(.text) for _scanf_int
    debug.o(.ARM.exidx.text.AT_DeviceHandle) refers to debug.o(.text.AT_DeviceHandle) for [Anonymous Symbol]
    debug.o(.text.fputc) refers (Special) to _scanf_int.o(.text) for _scanf_int
    debug.o(.text.fputc) refers to stm32g0xx_hal_uart.o(.text.HAL_UART_Transmit) for HAL_UART_Transmit
    debug.o(.text.fputc) refers to usart.o(.bss.huart1) for huart1
    debug.o(.ARM.exidx.text.fputc) refers (Special) to _scanf_int.o(.text) for _scanf_int
    debug.o(.ARM.exidx.text.fputc) refers to debug.o(.text.fputc) for [Anonymous Symbol]
    debug.o(.text.OnCfgDebug) refers (Special) to _scanf_int.o(.text) for _scanf_int
    debug.o(.text.OnCfgDebug) refers to debug.o(.text.os_time_get) for os_time_get
    debug.o(.text.OnCfgDebug) refers to uidiv_div0.o(.text) for __aeabi_uidiv
    debug.o(.text.OnCfgDebug) refers to printf6.o(i.__0printf$6) for __2printf
    debug.o(.text.OnCfgDebug) refers to puts.o(i.puts) for puts
    debug.o(.text.OnCfgDebug) refers to powermanagement.o(.text.SystemEnterLowerPower) for SystemEnterLowerPower
    debug.o(.text.OnCfgDebug) refers to memseta.o(.text) for __aeabi_memclr4
    debug.o(.text.OnCfgDebug) refers to debug.o(.data.dbg_level) for dbg_level
    debug.o(.text.OnCfgDebug) refers to debug.o(.rodata.str1.1) for [Anonymous Symbol]
    debug.o(.text.OnCfgDebug) refers to debug.o(.bss.DataRxBuffer) for DataRxBuffer
    debug.o(.ARM.exidx.text.OnCfgDebug) refers (Special) to _scanf_int.o(.text) for _scanf_int
    debug.o(.ARM.exidx.text.OnCfgDebug) refers to debug.o(.text.OnCfgDebug) for [Anonymous Symbol]
    debug.o(.bss.DataRxBuffer) refers (Special) to _scanf_int.o(.text) for _scanf_int
    debug.o(.bss.dbg_rxdata) refers (Special) to _scanf_int.o(.text) for _scanf_int
    debug.o(.data.dbg_Fram_Record) refers (Special) to _scanf_int.o(.text) for _scanf_int
    debug.o(.data.dbg_Fram_Record) refers to debug.o(.bss.DataRxBuffer) for DataRxBuffer
    debug.o(.data.dbg_level) refers (Special) to _scanf_int.o(.text) for _scanf_int
    debug.o(.bss.count) refers (Special) to _scanf_int.o(.text) for _scanf_int
    debug.o(.rodata.str1.4) refers (Special) to _scanf_int.o(.text) for _scanf_int
    debug.o(.rodata.str1.1) refers (Special) to _scanf_int.o(.text) for _scanf_int
    entry.o(.ARM.Collect$$$$00000000) refers (Special) to entry10a.o(.ARM.Collect$$$$0000000D) for __rt_final_cpp
    entry.o(.ARM.Collect$$$$00000000) refers (Special) to entry11a.o(.ARM.Collect$$$$0000000F) for __rt_final_exit
    entry.o(.ARM.Collect$$$$00000000) refers (Special) to entry7b.o(.ARM.Collect$$$$00000008) for _main_clock
    entry.o(.ARM.Collect$$$$00000000) refers (Special) to entry8b.o(.ARM.Collect$$$$0000000A) for _main_cpp_init
    entry.o(.ARM.Collect$$$$00000000) refers (Special) to entry9a.o(.ARM.Collect$$$$0000000B) for _main_init
    entry.o(.ARM.Collect$$$$00000000) refers (Special) to entry5.o(.ARM.Collect$$$$00000004) for _main_scatterload
    entry.o(.ARM.Collect$$$$00000000) refers (Special) to entry2.o(.ARM.Collect$$$$00000001) for _main_stk
    puts.o(i.puts) refers to debug.o(.text.fputc) for fputc
    puts.o(i.puts) refers to stdout.o(.data) for __stdout
    puts_e.o(.text) refers to debug.o(.text.fputc) for fputc
    puts_e.o(.text) refers to stdout.o(.data) for __stdout
    uldiv.o(.text) refers to llushr.o(.text) for __aeabi_llsr
    uldiv.o(.text) refers to llshl.o(.text) for __aeabi_llsl
    printfb.o(i.__0fprintf$bare) refers to printfb.o(i._printf_core) for _printf_core
    printfb.o(i.__0fprintf$bare) refers to debug.o(.text.fputc) for fputc
    printfb.o(i.__0printf$bare) refers to printfb.o(i._printf_core) for _printf_core
    printfb.o(i.__0printf$bare) refers to debug.o(.text.fputc) for fputc
    printfb.o(i.__0printf$bare) refers to stdout.o(.data) for __stdout
    printfb.o(i.__0snprintf$bare) refers to printfb.o(i._printf_core) for _printf_core
    printfb.o(i.__0snprintf$bare) refers to printfb.o(i._snputc) for _snputc
    printfb.o(i.__0sprintf$bare) refers to printfb.o(i._printf_core) for _printf_core
    printfb.o(i.__0sprintf$bare) refers to printfb.o(i._sputc) for _sputc
    printfb.o(i.__0vfprintf$bare) refers to printfb.o(i._printf_core) for _printf_core
    printfb.o(i.__0vfprintf$bare) refers to debug.o(.text.fputc) for fputc
    printfb.o(i.__0vprintf$bare) refers to printfb.o(i._printf_core) for _printf_core
    printfb.o(i.__0vprintf$bare) refers to debug.o(.text.fputc) for fputc
    printfb.o(i.__0vprintf$bare) refers to stdout.o(.data) for __stdout
    printfb.o(i.__0vsnprintf$bare) refers to printfb.o(i._printf_core) for _printf_core
    printfb.o(i.__0vsnprintf$bare) refers to printfb.o(i._snputc) for _snputc
    printfb.o(i.__0vsprintf$bare) refers to printfb.o(i._printf_core) for _printf_core
    printfb.o(i.__0vsprintf$bare) refers to printfb.o(i._sputc) for _sputc
    printf0.o(i.__0fprintf$0) refers to printf0.o(i._printf_core) for _printf_core
    printf0.o(i.__0fprintf$0) refers to debug.o(.text.fputc) for fputc
    printf0.o(i.__0printf$0) refers to printf0.o(i._printf_core) for _printf_core
    printf0.o(i.__0printf$0) refers to debug.o(.text.fputc) for fputc
    printf0.o(i.__0printf$0) refers to stdout.o(.data) for __stdout
    printf0.o(i.__0snprintf$0) refers to printf0.o(i._printf_core) for _printf_core
    printf0.o(i.__0snprintf$0) refers to printf0.o(i._snputc) for _snputc
    printf0.o(i.__0sprintf$0) refers to printf0.o(i._printf_core) for _printf_core
    printf0.o(i.__0sprintf$0) refers to printf0.o(i._sputc) for _sputc
    printf0.o(i.__0vfprintf$0) refers to printf0.o(i._printf_core) for _printf_core
    printf0.o(i.__0vfprintf$0) refers to debug.o(.text.fputc) for fputc
    printf0.o(i.__0vprintf$0) refers to printf0.o(i._printf_core) for _printf_core
    printf0.o(i.__0vprintf$0) refers to debug.o(.text.fputc) for fputc
    printf0.o(i.__0vprintf$0) refers to stdout.o(.data) for __stdout
    printf0.o(i.__0vsnprintf$0) refers to printf0.o(i._printf_core) for _printf_core
    printf0.o(i.__0vsnprintf$0) refers to printf0.o(i._snputc) for _snputc
    printf0.o(i.__0vsprintf$0) refers to printf0.o(i._printf_core) for _printf_core
    printf0.o(i.__0vsprintf$0) refers to printf0.o(i._sputc) for _sputc
    printf1.o(i.__0fprintf$1) refers to printf1.o(i._printf_core) for _printf_core
    printf1.o(i.__0fprintf$1) refers to debug.o(.text.fputc) for fputc
    printf1.o(i.__0printf$1) refers to printf1.o(i._printf_core) for _printf_core
    printf1.o(i.__0printf$1) refers to debug.o(.text.fputc) for fputc
    printf1.o(i.__0printf$1) refers to stdout.o(.data) for __stdout
    printf1.o(i.__0snprintf$1) refers to printf1.o(i._printf_core) for _printf_core
    printf1.o(i.__0snprintf$1) refers to printf1.o(i._snputc) for _snputc
    printf1.o(i.__0sprintf$1) refers to printf1.o(i._printf_core) for _printf_core
    printf1.o(i.__0sprintf$1) refers to printf1.o(i._sputc) for _sputc
    printf1.o(i.__0vfprintf$1) refers to printf1.o(i._printf_core) for _printf_core
    printf1.o(i.__0vfprintf$1) refers to debug.o(.text.fputc) for fputc
    printf1.o(i.__0vprintf$1) refers to printf1.o(i._printf_core) for _printf_core
    printf1.o(i.__0vprintf$1) refers to debug.o(.text.fputc) for fputc
    printf1.o(i.__0vprintf$1) refers to stdout.o(.data) for __stdout
    printf1.o(i.__0vsnprintf$1) refers to printf1.o(i._printf_core) for _printf_core
    printf1.o(i.__0vsnprintf$1) refers to printf1.o(i._snputc) for _snputc
    printf1.o(i.__0vsprintf$1) refers to printf1.o(i._printf_core) for _printf_core
    printf1.o(i.__0vsprintf$1) refers to printf1.o(i._sputc) for _sputc
    printf1.o(i._printf_core) refers to uidiv_div0.o(.text) for __aeabi_uidivmod
    printf2.o(i.__0fprintf$2) refers to printf2.o(i._printf_core) for _printf_core
    printf2.o(i.__0fprintf$2) refers to debug.o(.text.fputc) for fputc
    printf2.o(i.__0printf$2) refers to printf2.o(i._printf_core) for _printf_core
    printf2.o(i.__0printf$2) refers to debug.o(.text.fputc) for fputc
    printf2.o(i.__0printf$2) refers to stdout.o(.data) for __stdout
    printf2.o(i.__0snprintf$2) refers to printf2.o(i._printf_core) for _printf_core
    printf2.o(i.__0snprintf$2) refers to printf2.o(i._snputc) for _snputc
    printf2.o(i.__0sprintf$2) refers to printf2.o(i._printf_core) for _printf_core
    printf2.o(i.__0sprintf$2) refers to printf2.o(i._sputc) for _sputc
    printf2.o(i.__0vfprintf$2) refers to printf2.o(i._printf_core) for _printf_core
    printf2.o(i.__0vfprintf$2) refers to debug.o(.text.fputc) for fputc
    printf2.o(i.__0vprintf$2) refers to printf2.o(i._printf_core) for _printf_core
    printf2.o(i.__0vprintf$2) refers to debug.o(.text.fputc) for fputc
    printf2.o(i.__0vprintf$2) refers to stdout.o(.data) for __stdout
    printf2.o(i.__0vsnprintf$2) refers to printf2.o(i._printf_core) for _printf_core
    printf2.o(i.__0vsnprintf$2) refers to printf2.o(i._snputc) for _snputc
    printf2.o(i.__0vsprintf$2) refers to printf2.o(i._printf_core) for _printf_core
    printf2.o(i.__0vsprintf$2) refers to printf2.o(i._sputc) for _sputc
    printf3.o(i.__0fprintf$3) refers to printf3.o(i._printf_core) for _printf_core
    printf3.o(i.__0fprintf$3) refers to debug.o(.text.fputc) for fputc
    printf3.o(i.__0printf$3) refers to printf3.o(i._printf_core) for _printf_core
    printf3.o(i.__0printf$3) refers to debug.o(.text.fputc) for fputc
    printf3.o(i.__0printf$3) refers to stdout.o(.data) for __stdout
    printf3.o(i.__0snprintf$3) refers to printf3.o(i._printf_core) for _printf_core
    printf3.o(i.__0snprintf$3) refers to printf3.o(i._snputc) for _snputc
    printf3.o(i.__0sprintf$3) refers to printf3.o(i._printf_core) for _printf_core
    printf3.o(i.__0sprintf$3) refers to printf3.o(i._sputc) for _sputc
    printf3.o(i.__0vfprintf$3) refers to printf3.o(i._printf_core) for _printf_core
    printf3.o(i.__0vfprintf$3) refers to debug.o(.text.fputc) for fputc
    printf3.o(i.__0vprintf$3) refers to printf3.o(i._printf_core) for _printf_core
    printf3.o(i.__0vprintf$3) refers to debug.o(.text.fputc) for fputc
    printf3.o(i.__0vprintf$3) refers to stdout.o(.data) for __stdout
    printf3.o(i.__0vsnprintf$3) refers to printf3.o(i._printf_core) for _printf_core
    printf3.o(i.__0vsnprintf$3) refers to printf3.o(i._snputc) for _snputc
    printf3.o(i.__0vsprintf$3) refers to printf3.o(i._printf_core) for _printf_core
    printf3.o(i.__0vsprintf$3) refers to printf3.o(i._sputc) for _sputc
    printf3.o(i._printf_core) refers to uidiv_div0.o(.text) for __aeabi_uidivmod
    printf4.o(i.__0fprintf$4) refers to printf4.o(i._printf_core) for _printf_core
    printf4.o(i.__0fprintf$4) refers to debug.o(.text.fputc) for fputc
    printf4.o(i.__0printf$4) refers to printf4.o(i._printf_core) for _printf_core
    printf4.o(i.__0printf$4) refers to debug.o(.text.fputc) for fputc
    printf4.o(i.__0printf$4) refers to stdout.o(.data) for __stdout
    printf4.o(i.__0snprintf$4) refers to printf4.o(i._printf_core) for _printf_core
    printf4.o(i.__0snprintf$4) refers to printf4.o(i._snputc) for _snputc
    printf4.o(i.__0sprintf$4) refers to printf4.o(i._printf_core) for _printf_core
    printf4.o(i.__0sprintf$4) refers to printf4.o(i._sputc) for _sputc
    printf4.o(i.__0vfprintf$4) refers to printf4.o(i._printf_core) for _printf_core
    printf4.o(i.__0vfprintf$4) refers to debug.o(.text.fputc) for fputc
    printf4.o(i.__0vprintf$4) refers to printf4.o(i._printf_core) for _printf_core
    printf4.o(i.__0vprintf$4) refers to debug.o(.text.fputc) for fputc
    printf4.o(i.__0vprintf$4) refers to stdout.o(.data) for __stdout
    printf4.o(i.__0vsnprintf$4) refers to printf4.o(i._printf_core) for _printf_core
    printf4.o(i.__0vsnprintf$4) refers to printf4.o(i._snputc) for _snputc
    printf4.o(i.__0vsprintf$4) refers to printf4.o(i._printf_core) for _printf_core
    printf4.o(i.__0vsprintf$4) refers to printf4.o(i._sputc) for _sputc
    printf4.o(i._printf_core) refers to uldiv.o(.text) for __aeabi_uldivmod
    printf5.o(i.__0fprintf$5) refers to printf5.o(i._printf_core) for _printf_core
    printf5.o(i.__0fprintf$5) refers to debug.o(.text.fputc) for fputc
    printf5.o(i.__0printf$5) refers to printf5.o(i._printf_core) for _printf_core
    printf5.o(i.__0printf$5) refers to debug.o(.text.fputc) for fputc
    printf5.o(i.__0printf$5) refers to stdout.o(.data) for __stdout
    printf5.o(i.__0snprintf$5) refers to printf5.o(i._printf_core) for _printf_core
    printf5.o(i.__0snprintf$5) refers to printf5.o(i._snputc) for _snputc
    printf5.o(i.__0sprintf$5) refers to printf5.o(i._printf_core) for _printf_core
    printf5.o(i.__0sprintf$5) refers to printf5.o(i._sputc) for _sputc
    printf5.o(i.__0vfprintf$5) refers to printf5.o(i._printf_core) for _printf_core
    printf5.o(i.__0vfprintf$5) refers to debug.o(.text.fputc) for fputc
    printf5.o(i.__0vprintf$5) refers to printf5.o(i._printf_core) for _printf_core
    printf5.o(i.__0vprintf$5) refers to debug.o(.text.fputc) for fputc
    printf5.o(i.__0vprintf$5) refers to stdout.o(.data) for __stdout
    printf5.o(i.__0vsnprintf$5) refers to printf5.o(i._printf_core) for _printf_core
    printf5.o(i.__0vsnprintf$5) refers to printf5.o(i._snputc) for _snputc
    printf5.o(i.__0vsprintf$5) refers to printf5.o(i._printf_core) for _printf_core
    printf5.o(i.__0vsprintf$5) refers to printf5.o(i._sputc) for _sputc
    printf5.o(i._printf_core) refers to uldiv.o(.text) for __aeabi_uldivmod
    printf6.o(i.__0fprintf$6) refers to printf6.o(i._printf_core) for _printf_core
    printf6.o(i.__0fprintf$6) refers to debug.o(.text.fputc) for fputc
    printf6.o(i.__0printf$6) refers to printf6.o(i._printf_core) for _printf_core
    printf6.o(i.__0printf$6) refers to debug.o(.text.fputc) for fputc
    printf6.o(i.__0printf$6) refers to stdout.o(.data) for __stdout
    printf6.o(i.__0snprintf$6) refers to printf6.o(i._printf_core) for _printf_core
    printf6.o(i.__0snprintf$6) refers to printf6.o(i._snputc) for _snputc
    printf6.o(i.__0sprintf$6) refers to printf6.o(i._printf_core) for _printf_core
    printf6.o(i.__0sprintf$6) refers to printf6.o(i._sputc) for _sputc
    printf6.o(i.__0vfprintf$6) refers to printf6.o(i._printf_core) for _printf_core
    printf6.o(i.__0vfprintf$6) refers to debug.o(.text.fputc) for fputc
    printf6.o(i.__0vprintf$6) refers to printf6.o(i._printf_core) for _printf_core
    printf6.o(i.__0vprintf$6) refers to debug.o(.text.fputc) for fputc
    printf6.o(i.__0vprintf$6) refers to stdout.o(.data) for __stdout
    printf6.o(i.__0vsnprintf$6) refers to printf6.o(i._printf_core) for _printf_core
    printf6.o(i.__0vsnprintf$6) refers to printf6.o(i._snputc) for _snputc
    printf6.o(i.__0vsprintf$6) refers to printf6.o(i._printf_core) for _printf_core
    printf6.o(i.__0vsprintf$6) refers to printf6.o(i._sputc) for _sputc
    printf6.o(i._printf_core) refers to printf6.o(i._printf_pre_padding) for _printf_pre_padding
    printf6.o(i._printf_core) refers to printf6.o(i._printf_post_padding) for _printf_post_padding
    printf6.o(i._printf_core) refers to uidiv_div0.o(.text) for __aeabi_uidivmod
    printf7.o(i.__0fprintf$7) refers to printf7.o(i._printf_core) for _printf_core
    printf7.o(i.__0fprintf$7) refers to debug.o(.text.fputc) for fputc
    printf7.o(i.__0printf$7) refers to printf7.o(i._printf_core) for _printf_core
    printf7.o(i.__0printf$7) refers to debug.o(.text.fputc) for fputc
    printf7.o(i.__0printf$7) refers to stdout.o(.data) for __stdout
    printf7.o(i.__0snprintf$7) refers to printf7.o(i._printf_core) for _printf_core
    printf7.o(i.__0snprintf$7) refers to printf7.o(i._snputc) for _snputc
    printf7.o(i.__0sprintf$7) refers to printf7.o(i._printf_core) for _printf_core
    printf7.o(i.__0sprintf$7) refers to printf7.o(i._sputc) for _sputc
    printf7.o(i.__0vfprintf$7) refers to printf7.o(i._printf_core) for _printf_core
    printf7.o(i.__0vfprintf$7) refers to debug.o(.text.fputc) for fputc
    printf7.o(i.__0vprintf$7) refers to printf7.o(i._printf_core) for _printf_core
    printf7.o(i.__0vprintf$7) refers to debug.o(.text.fputc) for fputc
    printf7.o(i.__0vprintf$7) refers to stdout.o(.data) for __stdout
    printf7.o(i.__0vsnprintf$7) refers to printf7.o(i._printf_core) for _printf_core
    printf7.o(i.__0vsnprintf$7) refers to printf7.o(i._snputc) for _snputc
    printf7.o(i.__0vsprintf$7) refers to printf7.o(i._printf_core) for _printf_core
    printf7.o(i.__0vsprintf$7) refers to printf7.o(i._sputc) for _sputc
    printf7.o(i._printf_core) refers to printf7.o(i._printf_pre_padding) for _printf_pre_padding
    printf7.o(i._printf_core) refers to printf7.o(i._printf_post_padding) for _printf_post_padding
    printf7.o(i._printf_core) refers to uldiv.o(.text) for __aeabi_uldivmod
    printf8.o(i.__0fprintf$8) refers to printf8.o(i._printf_core) for _printf_core
    printf8.o(i.__0fprintf$8) refers to debug.o(.text.fputc) for fputc
    printf8.o(i.__0printf$8) refers to printf8.o(i._printf_core) for _printf_core
    printf8.o(i.__0printf$8) refers to debug.o(.text.fputc) for fputc
    printf8.o(i.__0printf$8) refers to stdout.o(.data) for __stdout
    printf8.o(i.__0snprintf$8) refers to printf8.o(i._printf_core) for _printf_core
    printf8.o(i.__0snprintf$8) refers to printf8.o(i._snputc) for _snputc
    printf8.o(i.__0sprintf$8) refers to printf8.o(i._printf_core) for _printf_core
    printf8.o(i.__0sprintf$8) refers to printf8.o(i._sputc) for _sputc
    printf8.o(i.__0vfprintf$8) refers to printf8.o(i._printf_core) for _printf_core
    printf8.o(i.__0vfprintf$8) refers to debug.o(.text.fputc) for fputc
    printf8.o(i.__0vprintf$8) refers to printf8.o(i._printf_core) for _printf_core
    printf8.o(i.__0vprintf$8) refers to debug.o(.text.fputc) for fputc
    printf8.o(i.__0vprintf$8) refers to stdout.o(.data) for __stdout
    printf8.o(i.__0vsnprintf$8) refers to printf8.o(i._printf_core) for _printf_core
    printf8.o(i.__0vsnprintf$8) refers to printf8.o(i._snputc) for _snputc
    printf8.o(i.__0vsprintf$8) refers to printf8.o(i._printf_core) for _printf_core
    printf8.o(i.__0vsprintf$8) refers to printf8.o(i._sputc) for _sputc
    printf8.o(i._printf_core) refers to printf8.o(i._printf_pre_padding) for _printf_pre_padding
    printf8.o(i._printf_core) refers to printf8.o(i._printf_post_padding) for _printf_post_padding
    printf8.o(i._printf_core) refers to uldiv.o(.text) for __aeabi_uldivmod
    printfa.o(i.__0fprintf) refers (Special) to iusefp.o(.text) for __I$use$fp
    printfa.o(i.__0fprintf) refers to printfa.o(i._printf_core) for _printf_core
    printfa.o(i.__0fprintf) refers to debug.o(.text.fputc) for fputc
    printfa.o(i.__0printf) refers (Special) to iusefp.o(.text) for __I$use$fp
    printfa.o(i.__0printf) refers to printfa.o(i._printf_core) for _printf_core
    printfa.o(i.__0printf) refers to debug.o(.text.fputc) for fputc
    printfa.o(i.__0printf) refers to stdout.o(.data) for __stdout
    printfa.o(i.__0snprintf) refers (Special) to iusefp.o(.text) for __I$use$fp
    printfa.o(i.__0snprintf) refers to printfa.o(i._printf_core) for _printf_core
    printfa.o(i.__0snprintf) refers to printfa.o(i._snputc) for _snputc
    printfa.o(i.__0sprintf) refers (Special) to iusefp.o(.text) for __I$use$fp
    printfa.o(i.__0sprintf) refers to printfa.o(i._printf_core) for _printf_core
    printfa.o(i.__0sprintf) refers to printfa.o(i._sputc) for _sputc
    printfa.o(i.__0vfprintf) refers (Special) to iusefp.o(.text) for __I$use$fp
    printfa.o(i.__0vfprintf) refers to printfa.o(i._printf_core) for _printf_core
    printfa.o(i.__0vfprintf) refers to debug.o(.text.fputc) for fputc
    printfa.o(i.__0vprintf) refers (Special) to iusefp.o(.text) for __I$use$fp
    printfa.o(i.__0vprintf) refers to printfa.o(i._printf_core) for _printf_core
    printfa.o(i.__0vprintf) refers to debug.o(.text.fputc) for fputc
    printfa.o(i.__0vprintf) refers to stdout.o(.data) for __stdout
    printfa.o(i.__0vsnprintf) refers (Special) to iusefp.o(.text) for __I$use$fp
    printfa.o(i.__0vsnprintf) refers to printfa.o(i._printf_core) for _printf_core
    printfa.o(i.__0vsnprintf) refers to printfa.o(i._snputc) for _snputc
    printfa.o(i.__0vsprintf) refers (Special) to iusefp.o(.text) for __I$use$fp
    printfa.o(i.__0vsprintf) refers to printfa.o(i._printf_core) for _printf_core
    printfa.o(i.__0vsprintf) refers to printfa.o(i._sputc) for _sputc
    printfa.o(i._fp_digits) refers (Special) to iusefp.o(.text) for __I$use$fp
    printfa.o(i._fp_digits) refers to dmul.o(.text) for __aeabi_dmul
    printfa.o(i._fp_digits) refers to ddiv.o(.text) for __aeabi_ddiv
    printfa.o(i._fp_digits) refers to cdrcmple.o(.text) for __aeabi_cdrcmple
    printfa.o(i._fp_digits) refers to dadd.o(.text) for __aeabi_dadd
    printfa.o(i._fp_digits) refers to dfixul.o(.text) for __aeabi_d2ulz
    printfa.o(i._fp_digits) refers to uldiv.o(.text) for __aeabi_uldivmod
    printfa.o(i._printf_core) refers (Special) to iusefp.o(.text) for __I$use$fp
    printfa.o(i._printf_core) refers to printfa.o(i._printf_pre_padding) for _printf_pre_padding
    printfa.o(i._printf_core) refers to uldiv.o(.text) for __aeabi_uldivmod
    printfa.o(i._printf_core) refers to printfa.o(i._printf_post_padding) for _printf_post_padding
    printfa.o(i._printf_core) refers to printfa.o(i._fp_digits) for _fp_digits
    printfa.o(i._printf_core) refers to uidiv_div0.o(.text) for __aeabi_uidivmod
    printfa.o(i._printf_post_padding) refers (Special) to iusefp.o(.text) for __I$use$fp
    printfa.o(i._printf_pre_padding) refers (Special) to iusefp.o(.text) for __I$use$fp
    printfa.o(i._snputc) refers (Special) to iusefp.o(.text) for __I$use$fp
    printfa.o(i._sputc) refers (Special) to iusefp.o(.text) for __I$use$fp
    sscanf.o(.text) refers (Special) to _scanf_int.o(.text) for _scanf_int
    sscanf.o(.text) refers (Special) to _scanf_longlong.o(.text) for _scanf_longlong
    sscanf.o(.text) refers (Special) to scanf_fp.o(.text) for _scanf_real
    sscanf.o(.text) refers (Special) to _scanf_str.o(.text) for _scanf_string
    sscanf.o(.text) refers to scanf_char.o(.text) for __vfscanf_char
    sscanf.o(.text) refers to _sgetc.o(.text) for _sgetc
    _scanf_int.o(.text) refers to _chval.o(.text) for _chval
    entry2.o(.ARM.Collect$$$$00000001) refers to entry2.o(.ARM.Collect$$$$00002712) for __lit__00000000
    entry2.o(.ARM.Collect$$$$00002712) refers to startup_stm32g0b1xx.o(STACK) for __initial_sp
    entry2.o(__vectab_stack_and_reset_area) refers to startup_stm32g0b1xx.o(STACK) for __initial_sp
    entry2.o(__vectab_stack_and_reset_area) refers to entry.o(.ARM.Collect$$$$00000000) for __main
    entry5.o(.ARM.Collect$$$$00000004) refers to init.o(.text) for __scatterload
    entry9a.o(.ARM.Collect$$$$0000000B) refers to main.o(.text.main) for main
    entry9b.o(.ARM.Collect$$$$0000000C) refers to main.o(.text.main) for main
    idiv_div0.o(.text) refers to uidiv_div0.o(.text) for __aeabi_uidivmod
    _scanf_longlong.o(.text) refers to llmul.o(.text) for __aeabi_lmul
    _scanf_longlong.o(.text) refers to _chval.o(.text) for _chval
    scanf_fp.o(.text) refers (Special) to iusefp.o(.text) for __I$use$fp
    scanf_fp.o(.text) refers to llmul.o(.text) for __aeabi_lmul
    scanf_fp.o(.text) refers to dfltul.o(.text) for __aeabi_ul2d
    scanf_fp.o(.text) refers to dmul.o(.text) for __aeabi_dmul
    scanf_fp.o(.text) refers to ddiv.o(.text) for __aeabi_ddiv
    scanf_fp.o(.text) refers to scanf_fp.o(i._is_digit) for _is_digit
    scanf_fp.o(.text) refers to d2f.o(.text) for __aeabi_d2f
    scanf_char.o(.text) refers to _scanf.o(.text) for __vfscanf
    scanf_char.o(.text) refers to isspace_c.o(.text) for isspace
    dadd.o(.text) refers (Special) to iusefp.o(.text) for __I$use$fp
    dadd.o(.text) refers to llshl.o(.text) for __aeabi_llsl
    dadd.o(.text) refers to llsshr.o(.text) for __aeabi_lasr
    dadd.o(.text) refers to depilogue.o(.text) for _double_epilogue
    dmul.o(.text) refers (Special) to iusefp.o(.text) for __I$use$fp
    dmul.o(.text) refers to depilogue.o(.text) for _double_epilogue
    ddiv.o(.text) refers (Special) to iusefp.o(.text) for __I$use$fp
    ddiv.o(.text) refers to depilogue.o(.text) for _double_round
    dfixul.o(.text) refers (Special) to iusefp.o(.text) for __I$use$fp
    dfixul.o(.text) refers to llushr.o(.text) for __aeabi_llsr
    dfixul.o(.text) refers to llshl.o(.text) for __aeabi_llsl
    cdrcmple.o(.text) refers (Special) to iusefp.o(.text) for __I$use$fp
    init.o(.text) refers to entry5.o(.ARM.Collect$$$$00000004) for __main_after_scatterload
    isspace_c.o(.text) refers to ctype_c.o(.text) for __ctype_lookup
    _scanf.o(.text) refers (Weak) to scanf_fp.o(.text) for _scanf_real
    _scanf.o(.text) refers (Weak) to _scanf_longlong.o(.text) for _scanf_longlong
    _scanf.o(.text) refers (Weak) to _scanf_int.o(.text) for _scanf_int
    _scanf.o(.text) refers (Weak) to _scanf_str.o(.text) for _scanf_string
    depilogue.o(.text) refers (Special) to iusefp.o(.text) for __I$use$fp
    depilogue.o(.text) refers to depilogue.o(i.__ARM_clz) for __ARM_clz
    depilogue.o(.text) refers to llshl.o(.text) for __aeabi_llsl
    depilogue.o(.text) refers to llushr.o(.text) for __aeabi_llsr
    dfltul.o(.text) refers (Special) to iusefp.o(.text) for __I$use$fp
    dfltul.o(.text) refers to depilogue.o(.text) for _double_epilogue
    d2f.o(.text) refers (Special) to iusefp.o(.text) for __I$use$fp
    d2f.o(.text) refers to fepilogue.o(.text) for _float_round
    ctype_c.o(.text) refers to ctype_c.o(.constdata) for .constdata
    fepilogue.o(.text) refers (Special) to iusefp.o(.text) for __I$use$fp
    scanf_fp.o(i._is_digit) refers (Special) to iusefp.o(.text) for __I$use$fp
    depilogue.o(i.__ARM_clz) refers (Special) to iusefp.o(.text) for __I$use$fp


==============================================================================

Removing Unused input sections from the image.

    Removing startup_stm32g0b1xx.o(HEAP), (512 bytes).
    Removing main.o(.text), (0 bytes).
    Removing main.o(.ARM.exidx.text.main), (8 bytes).
    Removing main.o(.ARM.exidx.text.SystemClock_Config), (8 bytes).
    Removing main.o(.ARM.exidx.text.Error_Handler), (8 bytes).
    Removing main.o(.ARM.exidx.text.HAL_GPIO_EXTI_Falling_Callback), (8 bytes).
    Removing main.o(.ARM.use_no_argv), (4 bytes).
    Removing gpio.o(.text), (0 bytes).
    Removing gpio.o(.ARM.exidx.text.MX_GPIO_Init), (8 bytes).
    Removing iwdg.o(.text), (0 bytes).
    Removing iwdg.o(.ARM.exidx.text.MX_IWDG_Init), (8 bytes).
    Removing usart.o(.text), (0 bytes).
    Removing usart.o(.ARM.exidx.text.MX_USART1_UART_Init), (8 bytes).
    Removing usart.o(.ARM.exidx.text.HAL_UART_MspInit), (8 bytes).
    Removing usart.o(.ARM.exidx.text.HAL_UART_MspDeInit), (8 bytes).
    Removing stm32g0xx_it.o(.text), (0 bytes).
    Removing stm32g0xx_it.o(.ARM.exidx.text.NMI_Handler), (8 bytes).
    Removing stm32g0xx_it.o(.ARM.exidx.text.HardFault_Handler), (8 bytes).
    Removing stm32g0xx_it.o(.ARM.exidx.text.SVC_Handler), (8 bytes).
    Removing stm32g0xx_it.o(.ARM.exidx.text.PendSV_Handler), (8 bytes).
    Removing stm32g0xx_it.o(.ARM.exidx.text.SysTick_Handler), (8 bytes).
    Removing stm32g0xx_it.o(.ARM.exidx.text.EXTI2_3_IRQHandler), (8 bytes).
    Removing stm32g0xx_it.o(.ARM.exidx.text.EXTI4_15_IRQHandler), (8 bytes).
    Removing stm32g0xx_it.o(.ARM.exidx.text.USART1_IRQHandler), (8 bytes).
    Removing stm32g0xx_hal_msp.o(.text), (0 bytes).
    Removing stm32g0xx_hal_msp.o(.ARM.exidx.text.HAL_MspInit), (8 bytes).
    Removing stm32g0xx_hal_iwdg.o(.text), (0 bytes).
    Removing stm32g0xx_hal_iwdg.o(.ARM.exidx.text.HAL_IWDG_Init), (8 bytes).
    Removing stm32g0xx_hal_iwdg.o(.ARM.exidx.text.HAL_IWDG_Refresh), (8 bytes).
    Removing stm32g0xx_hal_rcc.o(.text), (0 bytes).
    Removing stm32g0xx_hal_rcc.o(.text.HAL_RCC_DeInit), (172 bytes).
    Removing stm32g0xx_hal_rcc.o(.ARM.exidx.text.HAL_RCC_DeInit), (8 bytes).
    Removing stm32g0xx_hal_rcc.o(.ARM.exidx.text.HAL_RCC_OscConfig), (8 bytes).
    Removing stm32g0xx_hal_rcc.o(.ARM.exidx.text.HAL_RCC_ClockConfig), (8 bytes).
    Removing stm32g0xx_hal_rcc.o(.ARM.exidx.text.HAL_RCC_GetSysClockFreq), (8 bytes).
    Removing stm32g0xx_hal_rcc.o(.text.HAL_RCC_MCOConfig), (120 bytes).
    Removing stm32g0xx_hal_rcc.o(.ARM.exidx.text.HAL_RCC_MCOConfig), (8 bytes).
    Removing stm32g0xx_hal_rcc.o(.ARM.exidx.text.HAL_RCC_GetHCLKFreq), (8 bytes).
    Removing stm32g0xx_hal_rcc.o(.ARM.exidx.text.HAL_RCC_GetPCLK1Freq), (8 bytes).
    Removing stm32g0xx_hal_rcc.o(.ARM.exidx.text.LL_RCC_GetAPB1Prescaler), (8 bytes).
    Removing stm32g0xx_hal_rcc.o(.text.HAL_RCC_GetOscConfig), (168 bytes).
    Removing stm32g0xx_hal_rcc.o(.ARM.exidx.text.HAL_RCC_GetOscConfig), (8 bytes).
    Removing stm32g0xx_hal_rcc.o(.text.HAL_RCC_GetClockConfig), (52 bytes).
    Removing stm32g0xx_hal_rcc.o(.ARM.exidx.text.HAL_RCC_GetClockConfig), (8 bytes).
    Removing stm32g0xx_hal_rcc.o(.text.HAL_RCC_EnableCSS), (20 bytes).
    Removing stm32g0xx_hal_rcc.o(.ARM.exidx.text.HAL_RCC_EnableCSS), (8 bytes).
    Removing stm32g0xx_hal_rcc.o(.text.HAL_RCC_EnableLSECSS), (16 bytes).
    Removing stm32g0xx_hal_rcc.o(.ARM.exidx.text.HAL_RCC_EnableLSECSS), (8 bytes).
    Removing stm32g0xx_hal_rcc.o(.text.HAL_RCC_DisableLSECSS), (16 bytes).
    Removing stm32g0xx_hal_rcc.o(.ARM.exidx.text.HAL_RCC_DisableLSECSS), (8 bytes).
    Removing stm32g0xx_hal_rcc.o(.text.HAL_RCC_NMI_IRQHandler), (44 bytes).
    Removing stm32g0xx_hal_rcc.o(.ARM.exidx.text.HAL_RCC_NMI_IRQHandler), (8 bytes).
    Removing stm32g0xx_hal_rcc.o(.text.HAL_RCC_CSSCallback), (2 bytes).
    Removing stm32g0xx_hal_rcc.o(.ARM.exidx.text.HAL_RCC_CSSCallback), (8 bytes).
    Removing stm32g0xx_hal_rcc.o(.text.HAL_RCC_LSECSSCallback), (2 bytes).
    Removing stm32g0xx_hal_rcc.o(.ARM.exidx.text.HAL_RCC_LSECSSCallback), (8 bytes).
    Removing stm32g0xx_hal_rcc_ex.o(.text), (0 bytes).
    Removing stm32g0xx_hal_rcc_ex.o(.ARM.exidx.text.HAL_RCCEx_PeriphCLKConfig), (8 bytes).
    Removing stm32g0xx_hal_rcc_ex.o(.text.HAL_RCCEx_GetPeriphCLKConfig), (164 bytes).
    Removing stm32g0xx_hal_rcc_ex.o(.ARM.exidx.text.HAL_RCCEx_GetPeriphCLKConfig), (8 bytes).
    Removing stm32g0xx_hal_rcc_ex.o(.text.HAL_RCCEx_GetPeriphCLKFreq), (1332 bytes).
    Removing stm32g0xx_hal_rcc_ex.o(.ARM.exidx.text.HAL_RCCEx_GetPeriphCLKFreq), (8 bytes).
    Removing stm32g0xx_hal_rcc_ex.o(.text.HAL_RCCEx_EnableLSCO), (152 bytes).
    Removing stm32g0xx_hal_rcc_ex.o(.ARM.exidx.text.HAL_RCCEx_EnableLSCO), (8 bytes).
    Removing stm32g0xx_hal_rcc_ex.o(.text.HAL_RCCEx_DisableLSCO), (92 bytes).
    Removing stm32g0xx_hal_rcc_ex.o(.ARM.exidx.text.HAL_RCCEx_DisableLSCO), (8 bytes).
    Removing stm32g0xx_hal_rcc_ex.o(.text.HAL_RCCEx_CRSConfig), (76 bytes).
    Removing stm32g0xx_hal_rcc_ex.o(.ARM.exidx.text.HAL_RCCEx_CRSConfig), (8 bytes).
    Removing stm32g0xx_hal_rcc_ex.o(.text.HAL_RCCEx_CRSSoftwareSynchronizationGenerate), (16 bytes).
    Removing stm32g0xx_hal_rcc_ex.o(.ARM.exidx.text.HAL_RCCEx_CRSSoftwareSynchronizationGenerate), (8 bytes).
    Removing stm32g0xx_hal_rcc_ex.o(.text.HAL_RCCEx_CRSGetSynchronizationInfo), (44 bytes).
    Removing stm32g0xx_hal_rcc_ex.o(.ARM.exidx.text.HAL_RCCEx_CRSGetSynchronizationInfo), (8 bytes).
    Removing stm32g0xx_hal_rcc_ex.o(.text.HAL_RCCEx_CRSWaitSynchronization), (136 bytes).
    Removing stm32g0xx_hal_rcc_ex.o(.ARM.exidx.text.HAL_RCCEx_CRSWaitSynchronization), (8 bytes).
    Removing stm32g0xx_hal_rcc_ex.o(.text.HAL_RCCEx_CRS_IRQHandler), (84 bytes).
    Removing stm32g0xx_hal_rcc_ex.o(.ARM.exidx.text.HAL_RCCEx_CRS_IRQHandler), (8 bytes).
    Removing stm32g0xx_hal_rcc_ex.o(.text.HAL_RCCEx_CRS_SyncOkCallback), (2 bytes).
    Removing stm32g0xx_hal_rcc_ex.o(.ARM.exidx.text.HAL_RCCEx_CRS_SyncOkCallback), (8 bytes).
    Removing stm32g0xx_hal_rcc_ex.o(.text.HAL_RCCEx_CRS_SyncWarnCallback), (2 bytes).
    Removing stm32g0xx_hal_rcc_ex.o(.ARM.exidx.text.HAL_RCCEx_CRS_SyncWarnCallback), (8 bytes).
    Removing stm32g0xx_hal_rcc_ex.o(.text.HAL_RCCEx_CRS_ExpectedSyncCallback), (2 bytes).
    Removing stm32g0xx_hal_rcc_ex.o(.ARM.exidx.text.HAL_RCCEx_CRS_ExpectedSyncCallback), (8 bytes).
    Removing stm32g0xx_hal_rcc_ex.o(.text.HAL_RCCEx_CRS_ErrorCallback), (2 bytes).
    Removing stm32g0xx_hal_rcc_ex.o(.ARM.exidx.text.HAL_RCCEx_CRS_ErrorCallback), (8 bytes).
    Removing stm32g0xx_ll_rcc.o(.text), (0 bytes).
    Removing stm32g0xx_hal_flash.o(.text), (0 bytes).
    Removing stm32g0xx_hal_flash.o(.text.HAL_FLASH_Program), (108 bytes).
    Removing stm32g0xx_hal_flash.o(.ARM.exidx.text.HAL_FLASH_Program), (8 bytes).
    Removing stm32g0xx_hal_flash.o(.text.FLASH_WaitForLastOperation), (96 bytes).
    Removing stm32g0xx_hal_flash.o(.ARM.exidx.text.FLASH_WaitForLastOperation), (8 bytes).
    Removing stm32g0xx_hal_flash.o(.text.FLASH_Program_DoubleWord), (28 bytes).
    Removing stm32g0xx_hal_flash.o(.ARM.exidx.text.FLASH_Program_DoubleWord), (8 bytes).
    Removing stm32g0xx_hal_flash.o(.text.FLASH_Program_Fast), (60 bytes).
    Removing stm32g0xx_hal_flash.o(.ARM.exidx.text.FLASH_Program_Fast), (8 bytes).
    Removing stm32g0xx_hal_flash.o(.text.HAL_FLASH_Program_IT), (104 bytes).
    Removing stm32g0xx_hal_flash.o(.ARM.exidx.text.HAL_FLASH_Program_IT), (8 bytes).
    Removing stm32g0xx_hal_flash.o(.text.HAL_FLASH_IRQHandler), (160 bytes).
    Removing stm32g0xx_hal_flash.o(.ARM.exidx.text.HAL_FLASH_IRQHandler), (8 bytes).
    Removing stm32g0xx_hal_flash.o(.text.HAL_FLASH_OperationErrorCallback), (2 bytes).
    Removing stm32g0xx_hal_flash.o(.ARM.exidx.text.HAL_FLASH_OperationErrorCallback), (8 bytes).
    Removing stm32g0xx_hal_flash.o(.text.HAL_FLASH_EndOfOperationCallback), (2 bytes).
    Removing stm32g0xx_hal_flash.o(.ARM.exidx.text.HAL_FLASH_EndOfOperationCallback), (8 bytes).
    Removing stm32g0xx_hal_flash.o(.text.HAL_FLASH_Unlock), (40 bytes).
    Removing stm32g0xx_hal_flash.o(.ARM.exidx.text.HAL_FLASH_Unlock), (8 bytes).
    Removing stm32g0xx_hal_flash.o(.text.HAL_FLASH_Lock), (24 bytes).
    Removing stm32g0xx_hal_flash.o(.ARM.exidx.text.HAL_FLASH_Lock), (8 bytes).
    Removing stm32g0xx_hal_flash.o(.text.HAL_FLASH_OB_Unlock), (40 bytes).
    Removing stm32g0xx_hal_flash.o(.ARM.exidx.text.HAL_FLASH_OB_Unlock), (8 bytes).
    Removing stm32g0xx_hal_flash.o(.text.HAL_FLASH_OB_Lock), (24 bytes).
    Removing stm32g0xx_hal_flash.o(.ARM.exidx.text.HAL_FLASH_OB_Lock), (8 bytes).
    Removing stm32g0xx_hal_flash.o(.text.HAL_FLASH_OB_Launch), (20 bytes).
    Removing stm32g0xx_hal_flash.o(.ARM.exidx.text.HAL_FLASH_OB_Launch), (8 bytes).
    Removing stm32g0xx_hal_flash.o(.text.HAL_FLASH_GetError), (12 bytes).
    Removing stm32g0xx_hal_flash.o(.ARM.exidx.text.HAL_FLASH_GetError), (8 bytes).
    Removing stm32g0xx_hal_flash.o(.bss.pFlash), (28 bytes).
    Removing stm32g0xx_hal_flash_ex.o(.text), (0 bytes).
    Removing stm32g0xx_hal_flash_ex.o(.text.HAL_FLASHEx_Erase), (144 bytes).
    Removing stm32g0xx_hal_flash_ex.o(.ARM.exidx.text.HAL_FLASHEx_Erase), (8 bytes).
    Removing stm32g0xx_hal_flash_ex.o(.text.FLASH_MassErase), (20 bytes).
    Removing stm32g0xx_hal_flash_ex.o(.ARM.exidx.text.FLASH_MassErase), (8 bytes).
    Removing stm32g0xx_hal_flash_ex.o(.text.FLASH_PageErase), (44 bytes).
    Removing stm32g0xx_hal_flash_ex.o(.ARM.exidx.text.FLASH_PageErase), (8 bytes).
    Removing stm32g0xx_hal_flash_ex.o(.text.HAL_FLASHEx_Erase_IT), (104 bytes).
    Removing stm32g0xx_hal_flash_ex.o(.ARM.exidx.text.HAL_FLASHEx_Erase_IT), (8 bytes).
    Removing stm32g0xx_hal_flash_ex.o(.text.HAL_FLASHEx_OBProgram), (228 bytes).
    Removing stm32g0xx_hal_flash_ex.o(.ARM.exidx.text.HAL_FLASHEx_OBProgram), (8 bytes).
    Removing stm32g0xx_hal_flash_ex.o(.text.FLASH_OB_WRPConfig), (56 bytes).
    Removing stm32g0xx_hal_flash_ex.o(.ARM.exidx.text.FLASH_OB_WRPConfig), (8 bytes).
    Removing stm32g0xx_hal_flash_ex.o(.text.FLASH_OB_OptrConfig), (24 bytes).
    Removing stm32g0xx_hal_flash_ex.o(.ARM.exidx.text.FLASH_OB_OptrConfig), (8 bytes).
    Removing stm32g0xx_hal_flash_ex.o(.text.FLASH_OB_GetUser), (20 bytes).
    Removing stm32g0xx_hal_flash_ex.o(.ARM.exidx.text.FLASH_OB_GetUser), (8 bytes).
    Removing stm32g0xx_hal_flash_ex.o(.text.FLASH_OB_GetRDP), (32 bytes).
    Removing stm32g0xx_hal_flash_ex.o(.ARM.exidx.text.FLASH_OB_GetRDP), (8 bytes).
    Removing stm32g0xx_hal_flash_ex.o(.text.FLASH_OB_PCROP1AConfig), (168 bytes).
    Removing stm32g0xx_hal_flash_ex.o(.ARM.exidx.text.FLASH_OB_PCROP1AConfig), (8 bytes).
    Removing stm32g0xx_hal_flash_ex.o(.text.FLASH_OB_PCROP1BConfig), (132 bytes).
    Removing stm32g0xx_hal_flash_ex.o(.ARM.exidx.text.FLASH_OB_PCROP1BConfig), (8 bytes).
    Removing stm32g0xx_hal_flash_ex.o(.text.FLASH_OB_PCROP2AConfig), (100 bytes).
    Removing stm32g0xx_hal_flash_ex.o(.ARM.exidx.text.FLASH_OB_PCROP2AConfig), (8 bytes).
    Removing stm32g0xx_hal_flash_ex.o(.text.FLASH_OB_PCROP2BConfig), (100 bytes).
    Removing stm32g0xx_hal_flash_ex.o(.ARM.exidx.text.FLASH_OB_PCROP2BConfig), (8 bytes).
    Removing stm32g0xx_hal_flash_ex.o(.text.FLASH_OB_SecMemConfig), (32 bytes).
    Removing stm32g0xx_hal_flash_ex.o(.ARM.exidx.text.FLASH_OB_SecMemConfig), (8 bytes).
    Removing stm32g0xx_hal_flash_ex.o(.text.HAL_FLASHEx_OBGetConfig), (128 bytes).
    Removing stm32g0xx_hal_flash_ex.o(.ARM.exidx.text.HAL_FLASHEx_OBGetConfig), (8 bytes).
    Removing stm32g0xx_hal_flash_ex.o(.text.FLASH_OB_GetWRP), (80 bytes).
    Removing stm32g0xx_hal_flash_ex.o(.ARM.exidx.text.FLASH_OB_GetWRP), (8 bytes).
    Removing stm32g0xx_hal_flash_ex.o(.text.FLASH_OB_GetPCROP1A), (184 bytes).
    Removing stm32g0xx_hal_flash_ex.o(.ARM.exidx.text.FLASH_OB_GetPCROP1A), (8 bytes).
    Removing stm32g0xx_hal_flash_ex.o(.text.FLASH_OB_GetPCROP1B), (152 bytes).
    Removing stm32g0xx_hal_flash_ex.o(.ARM.exidx.text.FLASH_OB_GetPCROP1B), (8 bytes).
    Removing stm32g0xx_hal_flash_ex.o(.text.FLASH_OB_GetPCROP2A), (120 bytes).
    Removing stm32g0xx_hal_flash_ex.o(.ARM.exidx.text.FLASH_OB_GetPCROP2A), (8 bytes).
    Removing stm32g0xx_hal_flash_ex.o(.text.FLASH_OB_GetPCROP2B), (120 bytes).
    Removing stm32g0xx_hal_flash_ex.o(.ARM.exidx.text.FLASH_OB_GetPCROP2B), (8 bytes).
    Removing stm32g0xx_hal_flash_ex.o(.text.FLASH_OB_GetSecMem), (32 bytes).
    Removing stm32g0xx_hal_flash_ex.o(.ARM.exidx.text.FLASH_OB_GetSecMem), (8 bytes).
    Removing stm32g0xx_hal_flash_ex.o(.text.HAL_FLASHEx_EnableDebugger), (20 bytes).
    Removing stm32g0xx_hal_flash_ex.o(.ARM.exidx.text.HAL_FLASHEx_EnableDebugger), (8 bytes).
    Removing stm32g0xx_hal_flash_ex.o(.text.HAL_FLASHEx_DisableDebugger), (20 bytes).
    Removing stm32g0xx_hal_flash_ex.o(.ARM.exidx.text.HAL_FLASHEx_DisableDebugger), (8 bytes).
    Removing stm32g0xx_hal_flash_ex.o(.text.HAL_FLASHEx_FlashEmptyCheck), (16 bytes).
    Removing stm32g0xx_hal_flash_ex.o(.ARM.exidx.text.HAL_FLASHEx_FlashEmptyCheck), (8 bytes).
    Removing stm32g0xx_hal_flash_ex.o(.text.HAL_FLASHEx_ForceFlashEmpty), (20 bytes).
    Removing stm32g0xx_hal_flash_ex.o(.ARM.exidx.text.HAL_FLASHEx_ForceFlashEmpty), (8 bytes).
    Removing stm32g0xx_hal_flash_ex.o(.text.HAL_FLASHEx_EnableSecMemProtection), (40 bytes).
    Removing stm32g0xx_hal_flash_ex.o(.ARM.exidx.text.HAL_FLASHEx_EnableSecMemProtection), (8 bytes).
    Removing stm32g0xx_hal_flash_ex.o(.text.FLASH_FlushCaches), (44 bytes).
    Removing stm32g0xx_hal_flash_ex.o(.ARM.exidx.text.FLASH_FlushCaches), (8 bytes).
    Removing stm32g0xx_hal_gpio.o(.text), (0 bytes).
    Removing stm32g0xx_hal_gpio.o(.ARM.exidx.text.HAL_GPIO_Init), (8 bytes).
    Removing stm32g0xx_hal_gpio.o(.ARM.exidx.text.HAL_GPIO_DeInit), (8 bytes).
    Removing stm32g0xx_hal_gpio.o(.text.HAL_GPIO_ReadPin), (10 bytes).
    Removing stm32g0xx_hal_gpio.o(.ARM.exidx.text.HAL_GPIO_ReadPin), (8 bytes).
    Removing stm32g0xx_hal_gpio.o(.ARM.exidx.text.HAL_GPIO_WritePin), (8 bytes).
    Removing stm32g0xx_hal_gpio.o(.ARM.exidx.text.HAL_GPIO_TogglePin), (8 bytes).
    Removing stm32g0xx_hal_gpio.o(.text.HAL_GPIO_LockPin), (40 bytes).
    Removing stm32g0xx_hal_gpio.o(.ARM.exidx.text.HAL_GPIO_LockPin), (8 bytes).
    Removing stm32g0xx_hal_gpio.o(.ARM.exidx.text.HAL_GPIO_EXTI_IRQHandler), (8 bytes).
    Removing stm32g0xx_hal_gpio.o(.ARM.exidx.text.HAL_GPIO_EXTI_Rising_Callback), (8 bytes).
    Removing stm32g0xx_hal_gpio.o(.text.HAL_GPIO_EXTI_Falling_Callback), (2 bytes).
    Removing stm32g0xx_hal_gpio.o(.ARM.exidx.text.HAL_GPIO_EXTI_Falling_Callback), (8 bytes).
    Removing stm32g0xx_hal_dma.o(.text), (0 bytes).
    Removing stm32g0xx_hal_dma.o(.text.HAL_DMA_Init), (216 bytes).
    Removing stm32g0xx_hal_dma.o(.ARM.exidx.text.HAL_DMA_Init), (8 bytes).
    Removing stm32g0xx_hal_dma.o(.text.DMA_CalcDMAMUXChannelBaseAndMask), (76 bytes).
    Removing stm32g0xx_hal_dma.o(.ARM.exidx.text.DMA_CalcDMAMUXChannelBaseAndMask), (8 bytes).
    Removing stm32g0xx_hal_dma.o(.text.DMA_CalcDMAMUXRequestGenBaseAndMask), (40 bytes).
    Removing stm32g0xx_hal_dma.o(.ARM.exidx.text.DMA_CalcDMAMUXRequestGenBaseAndMask), (8 bytes).
    Removing stm32g0xx_hal_dma.o(.text.HAL_DMA_DeInit), (164 bytes).
    Removing stm32g0xx_hal_dma.o(.ARM.exidx.text.HAL_DMA_DeInit), (8 bytes).
    Removing stm32g0xx_hal_dma.o(.text.HAL_DMA_Start), (80 bytes).
    Removing stm32g0xx_hal_dma.o(.ARM.exidx.text.HAL_DMA_Start), (8 bytes).
    Removing stm32g0xx_hal_dma.o(.text.DMA_SetConfig), (60 bytes).
    Removing stm32g0xx_hal_dma.o(.ARM.exidx.text.DMA_SetConfig), (8 bytes).
    Removing stm32g0xx_hal_dma.o(.text.HAL_DMA_Start_IT), (136 bytes).
    Removing stm32g0xx_hal_dma.o(.ARM.exidx.text.HAL_DMA_Start_IT), (8 bytes).
    Removing stm32g0xx_hal_dma.o(.ARM.exidx.text.HAL_DMA_Abort), (8 bytes).
    Removing stm32g0xx_hal_dma.o(.ARM.exidx.text.HAL_DMA_Abort_IT), (8 bytes).
    Removing stm32g0xx_hal_dma.o(.text.HAL_DMA_PollForTransfer), (290 bytes).
    Removing stm32g0xx_hal_dma.o(.ARM.exidx.text.HAL_DMA_PollForTransfer), (8 bytes).
    Removing stm32g0xx_hal_dma.o(.text.HAL_DMA_IRQHandler), (188 bytes).
    Removing stm32g0xx_hal_dma.o(.ARM.exidx.text.HAL_DMA_IRQHandler), (8 bytes).
    Removing stm32g0xx_hal_dma.o(.text.HAL_DMA_RegisterCallback), (70 bytes).
    Removing stm32g0xx_hal_dma.o(.ARM.exidx.text.HAL_DMA_RegisterCallback), (8 bytes).
    Removing stm32g0xx_hal_dma.o(.text.HAL_DMA_UnRegisterCallback), (88 bytes).
    Removing stm32g0xx_hal_dma.o(.ARM.exidx.text.HAL_DMA_UnRegisterCallback), (8 bytes).
    Removing stm32g0xx_hal_dma.o(.text.HAL_DMA_GetState), (6 bytes).
    Removing stm32g0xx_hal_dma.o(.ARM.exidx.text.HAL_DMA_GetState), (8 bytes).
    Removing stm32g0xx_hal_dma.o(.text.HAL_DMA_GetError), (4 bytes).
    Removing stm32g0xx_hal_dma.o(.ARM.exidx.text.HAL_DMA_GetError), (8 bytes).
    Removing stm32g0xx_hal_dma_ex.o(.text), (0 bytes).
    Removing stm32g0xx_hal_dma_ex.o(.text.HAL_DMAEx_ConfigMuxSync), (84 bytes).
    Removing stm32g0xx_hal_dma_ex.o(.ARM.exidx.text.HAL_DMAEx_ConfigMuxSync), (8 bytes).
    Removing stm32g0xx_hal_dma_ex.o(.text.HAL_DMAEx_ConfigMuxRequestGenerator), (80 bytes).
    Removing stm32g0xx_hal_dma_ex.o(.ARM.exidx.text.HAL_DMAEx_ConfigMuxRequestGenerator), (8 bytes).
    Removing stm32g0xx_hal_dma_ex.o(.text.HAL_DMAEx_EnableMuxRequestGenerator), (32 bytes).
    Removing stm32g0xx_hal_dma_ex.o(.ARM.exidx.text.HAL_DMAEx_EnableMuxRequestGenerator), (8 bytes).
    Removing stm32g0xx_hal_dma_ex.o(.text.HAL_DMAEx_DisableMuxRequestGenerator), (32 bytes).
    Removing stm32g0xx_hal_dma_ex.o(.ARM.exidx.text.HAL_DMAEx_DisableMuxRequestGenerator), (8 bytes).
    Removing stm32g0xx_hal_dma_ex.o(.text.HAL_DMAEx_MUX_IRQHandler), (96 bytes).
    Removing stm32g0xx_hal_dma_ex.o(.ARM.exidx.text.HAL_DMAEx_MUX_IRQHandler), (8 bytes).
    Removing stm32g0xx_ll_dma.o(.text), (0 bytes).
    Removing stm32g0xx_hal_pwr.o(.text), (0 bytes).
    Removing stm32g0xx_hal_pwr.o(.text.HAL_PWR_DeInit), (24 bytes).
    Removing stm32g0xx_hal_pwr.o(.ARM.exidx.text.HAL_PWR_DeInit), (8 bytes).
    Removing stm32g0xx_hal_pwr.o(.text.HAL_PWR_EnableBkUpAccess), (20 bytes).
    Removing stm32g0xx_hal_pwr.o(.ARM.exidx.text.HAL_PWR_EnableBkUpAccess), (8 bytes).
    Removing stm32g0xx_hal_pwr.o(.text.HAL_PWR_DisableBkUpAccess), (20 bytes).
    Removing stm32g0xx_hal_pwr.o(.ARM.exidx.text.HAL_PWR_DisableBkUpAccess), (8 bytes).
    Removing stm32g0xx_hal_pwr.o(.text.HAL_PWR_EnableWakeUpPin), (28 bytes).
    Removing stm32g0xx_hal_pwr.o(.ARM.exidx.text.HAL_PWR_EnableWakeUpPin), (8 bytes).
    Removing stm32g0xx_hal_pwr.o(.text.HAL_PWR_DisableWakeUpPin), (24 bytes).
    Removing stm32g0xx_hal_pwr.o(.ARM.exidx.text.HAL_PWR_DisableWakeUpPin), (8 bytes).
    Removing stm32g0xx_hal_pwr.o(.ARM.exidx.text.HAL_PWR_EnterSLEEPMode), (8 bytes).
    Removing stm32g0xx_hal_pwr.o(.ARM.exidx.text.HAL_PWR_EnterSTOPMode), (8 bytes).
    Removing stm32g0xx_hal_pwr.o(.ARM.exidx.text.HAL_PWR_EnterSTANDBYMode), (8 bytes).
    Removing stm32g0xx_hal_pwr.o(.text.HAL_PWR_EnableSleepOnExit), (16 bytes).
    Removing stm32g0xx_hal_pwr.o(.ARM.exidx.text.HAL_PWR_EnableSleepOnExit), (8 bytes).
    Removing stm32g0xx_hal_pwr.o(.text.HAL_PWR_DisableSleepOnExit), (16 bytes).
    Removing stm32g0xx_hal_pwr.o(.ARM.exidx.text.HAL_PWR_DisableSleepOnExit), (8 bytes).
    Removing stm32g0xx_hal_pwr.o(.text.HAL_PWR_EnableSEVOnPend), (16 bytes).
    Removing stm32g0xx_hal_pwr.o(.ARM.exidx.text.HAL_PWR_EnableSEVOnPend), (8 bytes).
    Removing stm32g0xx_hal_pwr.o(.text.HAL_PWR_DisableSEVOnPend), (16 bytes).
    Removing stm32g0xx_hal_pwr.o(.ARM.exidx.text.HAL_PWR_DisableSEVOnPend), (8 bytes).
    Removing stm32g0xx_hal_pwr_ex.o(.text), (0 bytes).
    Removing stm32g0xx_hal_pwr_ex.o(.text.HAL_PWREx_EnableBatteryCharging), (28 bytes).
    Removing stm32g0xx_hal_pwr_ex.o(.ARM.exidx.text.HAL_PWREx_EnableBatteryCharging), (8 bytes).
    Removing stm32g0xx_hal_pwr_ex.o(.text.HAL_PWREx_DisableBatteryCharging), (20 bytes).
    Removing stm32g0xx_hal_pwr_ex.o(.ARM.exidx.text.HAL_PWREx_DisableBatteryCharging), (8 bytes).
    Removing stm32g0xx_hal_pwr_ex.o(.text.HAL_PWREx_EnablePORMonitorSampling), (20 bytes).
    Removing stm32g0xx_hal_pwr_ex.o(.ARM.exidx.text.HAL_PWREx_EnablePORMonitorSampling), (8 bytes).
    Removing stm32g0xx_hal_pwr_ex.o(.text.HAL_PWREx_DisablePORMonitorSampling), (20 bytes).
    Removing stm32g0xx_hal_pwr_ex.o(.ARM.exidx.text.HAL_PWREx_DisablePORMonitorSampling), (8 bytes).
    Removing stm32g0xx_hal_pwr_ex.o(.text.HAL_PWREx_ConfigPVD), (128 bytes).
    Removing stm32g0xx_hal_pwr_ex.o(.ARM.exidx.text.HAL_PWREx_ConfigPVD), (8 bytes).
    Removing stm32g0xx_hal_pwr_ex.o(.text.HAL_PWREx_EnablePVD), (16 bytes).
    Removing stm32g0xx_hal_pwr_ex.o(.ARM.exidx.text.HAL_PWREx_EnablePVD), (8 bytes).
    Removing stm32g0xx_hal_pwr_ex.o(.text.HAL_PWREx_DisablePVD), (16 bytes).
    Removing stm32g0xx_hal_pwr_ex.o(.ARM.exidx.text.HAL_PWREx_DisablePVD), (8 bytes).
    Removing stm32g0xx_hal_pwr_ex.o(.text.HAL_PWREx_EnableVddUSB), (20 bytes).
    Removing stm32g0xx_hal_pwr_ex.o(.ARM.exidx.text.HAL_PWREx_EnableVddUSB), (8 bytes).
    Removing stm32g0xx_hal_pwr_ex.o(.text.HAL_PWREx_DisableVddUSB), (20 bytes).
    Removing stm32g0xx_hal_pwr_ex.o(.ARM.exidx.text.HAL_PWREx_DisableVddUSB), (8 bytes).
    Removing stm32g0xx_hal_pwr_ex.o(.text.HAL_PWREx_EnableVddIO2), (20 bytes).
    Removing stm32g0xx_hal_pwr_ex.o(.ARM.exidx.text.HAL_PWREx_EnableVddIO2), (8 bytes).
    Removing stm32g0xx_hal_pwr_ex.o(.text.HAL_PWREx_DisableVddIO2), (20 bytes).
    Removing stm32g0xx_hal_pwr_ex.o(.ARM.exidx.text.HAL_PWREx_DisableVddIO2), (8 bytes).
    Removing stm32g0xx_hal_pwr_ex.o(.text.HAL_PWREx_EnablePVMUSB), (20 bytes).
    Removing stm32g0xx_hal_pwr_ex.o(.ARM.exidx.text.HAL_PWREx_EnablePVMUSB), (8 bytes).
    Removing stm32g0xx_hal_pwr_ex.o(.text.HAL_PWREx_DisablePVMUSB), (20 bytes).
    Removing stm32g0xx_hal_pwr_ex.o(.ARM.exidx.text.HAL_PWREx_DisablePVMUSB), (8 bytes).
    Removing stm32g0xx_hal_pwr_ex.o(.text.HAL_PWREx_ConfigPVM), (104 bytes).
    Removing stm32g0xx_hal_pwr_ex.o(.ARM.exidx.text.HAL_PWREx_ConfigPVM), (8 bytes).
    Removing stm32g0xx_hal_pwr_ex.o(.text.HAL_PWREx_EnableInternalWakeUpLine), (20 bytes).
    Removing stm32g0xx_hal_pwr_ex.o(.ARM.exidx.text.HAL_PWREx_EnableInternalWakeUpLine), (8 bytes).
    Removing stm32g0xx_hal_pwr_ex.o(.text.HAL_PWREx_DisableInternalWakeUpLine), (20 bytes).
    Removing stm32g0xx_hal_pwr_ex.o(.ARM.exidx.text.HAL_PWREx_DisableInternalWakeUpLine), (8 bytes).
    Removing stm32g0xx_hal_pwr_ex.o(.text.HAL_PWREx_EnableGPIOPullUp), (112 bytes).
    Removing stm32g0xx_hal_pwr_ex.o(.ARM.exidx.text.HAL_PWREx_EnableGPIOPullUp), (8 bytes).
    Removing stm32g0xx_hal_pwr_ex.o(.text.HAL_PWREx_DisableGPIOPullUp), (96 bytes).
    Removing stm32g0xx_hal_pwr_ex.o(.ARM.exidx.text.HAL_PWREx_DisableGPIOPullUp), (8 bytes).
    Removing stm32g0xx_hal_pwr_ex.o(.text.HAL_PWREx_EnableGPIOPullDown), (152 bytes).
    Removing stm32g0xx_hal_pwr_ex.o(.ARM.exidx.text.HAL_PWREx_EnableGPIOPullDown), (8 bytes).
    Removing stm32g0xx_hal_pwr_ex.o(.text.HAL_PWREx_DisableGPIOPullDown), (68 bytes).
    Removing stm32g0xx_hal_pwr_ex.o(.ARM.exidx.text.HAL_PWREx_DisableGPIOPullDown), (8 bytes).
    Removing stm32g0xx_hal_pwr_ex.o(.text.HAL_PWREx_EnablePullUpPullDownConfig), (20 bytes).
    Removing stm32g0xx_hal_pwr_ex.o(.ARM.exidx.text.HAL_PWREx_EnablePullUpPullDownConfig), (8 bytes).
    Removing stm32g0xx_hal_pwr_ex.o(.text.HAL_PWREx_DisablePullUpPullDownConfig), (20 bytes).
    Removing stm32g0xx_hal_pwr_ex.o(.ARM.exidx.text.HAL_PWREx_DisablePullUpPullDownConfig), (8 bytes).
    Removing stm32g0xx_hal_pwr_ex.o(.text.HAL_PWREx_EnableSRAMRetention), (20 bytes).
    Removing stm32g0xx_hal_pwr_ex.o(.ARM.exidx.text.HAL_PWREx_EnableSRAMRetention), (8 bytes).
    Removing stm32g0xx_hal_pwr_ex.o(.text.HAL_PWREx_DisableSRAMRetention), (20 bytes).
    Removing stm32g0xx_hal_pwr_ex.o(.ARM.exidx.text.HAL_PWREx_DisableSRAMRetention), (8 bytes).
    Removing stm32g0xx_hal_pwr_ex.o(.text.HAL_PWREx_EnableFlashPowerDown), (16 bytes).
    Removing stm32g0xx_hal_pwr_ex.o(.ARM.exidx.text.HAL_PWREx_EnableFlashPowerDown), (8 bytes).
    Removing stm32g0xx_hal_pwr_ex.o(.text.HAL_PWREx_DisableFlashPowerDown), (16 bytes).
    Removing stm32g0xx_hal_pwr_ex.o(.ARM.exidx.text.HAL_PWREx_DisableFlashPowerDown), (8 bytes).
    Removing stm32g0xx_hal_pwr_ex.o(.text.HAL_PWREx_GetVoltageRange), (16 bytes).
    Removing stm32g0xx_hal_pwr_ex.o(.ARM.exidx.text.HAL_PWREx_GetVoltageRange), (8 bytes).
    Removing stm32g0xx_hal_pwr_ex.o(.ARM.exidx.text.HAL_PWREx_ControlVoltageScaling), (8 bytes).
    Removing stm32g0xx_hal_pwr_ex.o(.ARM.exidx.text.HAL_PWREx_EnableLowPowerRunMode), (8 bytes).
    Removing stm32g0xx_hal_pwr_ex.o(.ARM.exidx.text.HAL_PWREx_DisableLowPowerRunMode), (8 bytes).
    Removing stm32g0xx_hal_pwr_ex.o(.ARM.exidx.text.HAL_PWREx_EnterSHUTDOWNMode), (8 bytes).
    Removing stm32g0xx_hal_pwr_ex.o(.text.HAL_PWREx_PVD_PVM_IRQHandler), (68 bytes).
    Removing stm32g0xx_hal_pwr_ex.o(.ARM.exidx.text.HAL_PWREx_PVD_PVM_IRQHandler), (8 bytes).
    Removing stm32g0xx_hal_pwr_ex.o(.text.HAL_PWREx_PVD_PVM_Rising_Callback), (2 bytes).
    Removing stm32g0xx_hal_pwr_ex.o(.ARM.exidx.text.HAL_PWREx_PVD_PVM_Rising_Callback), (8 bytes).
    Removing stm32g0xx_hal_pwr_ex.o(.text.HAL_PWREx_PVD_PVM_Falling_Callback), (2 bytes).
    Removing stm32g0xx_hal_pwr_ex.o(.ARM.exidx.text.HAL_PWREx_PVD_PVM_Falling_Callback), (8 bytes).
    Removing stm32g0xx_hal_cortex.o(.text), (0 bytes).
    Removing stm32g0xx_hal_cortex.o(.ARM.exidx.text.HAL_NVIC_SetPriority), (8 bytes).
    Removing stm32g0xx_hal_cortex.o(.ARM.exidx.text.__NVIC_SetPriority), (8 bytes).
    Removing stm32g0xx_hal_cortex.o(.ARM.exidx.text.HAL_NVIC_EnableIRQ), (8 bytes).
    Removing stm32g0xx_hal_cortex.o(.ARM.exidx.text.__NVIC_EnableIRQ), (8 bytes).
    Removing stm32g0xx_hal_cortex.o(.ARM.exidx.text.HAL_NVIC_DisableIRQ), (8 bytes).
    Removing stm32g0xx_hal_cortex.o(.ARM.exidx.text.__NVIC_DisableIRQ), (8 bytes).
    Removing stm32g0xx_hal_cortex.o(.text.HAL_NVIC_SystemReset), (4 bytes).
    Removing stm32g0xx_hal_cortex.o(.ARM.exidx.text.HAL_NVIC_SystemReset), (8 bytes).
    Removing stm32g0xx_hal_cortex.o(.text.__NVIC_SystemReset), (28 bytes).
    Removing stm32g0xx_hal_cortex.o(.ARM.exidx.text.__NVIC_SystemReset), (8 bytes).
    Removing stm32g0xx_hal_cortex.o(.ARM.exidx.text.HAL_SYSTICK_Config), (8 bytes).
    Removing stm32g0xx_hal_cortex.o(.ARM.exidx.text.SysTick_Config), (8 bytes).
    Removing stm32g0xx_hal_cortex.o(.text.HAL_NVIC_GetPriority), (8 bytes).
    Removing stm32g0xx_hal_cortex.o(.ARM.exidx.text.HAL_NVIC_GetPriority), (8 bytes).
    Removing stm32g0xx_hal_cortex.o(.text.__NVIC_GetPriority), (52 bytes).
    Removing stm32g0xx_hal_cortex.o(.ARM.exidx.text.__NVIC_GetPriority), (8 bytes).
    Removing stm32g0xx_hal_cortex.o(.text.HAL_NVIC_SetPendingIRQ), (8 bytes).
    Removing stm32g0xx_hal_cortex.o(.ARM.exidx.text.HAL_NVIC_SetPendingIRQ), (8 bytes).
    Removing stm32g0xx_hal_cortex.o(.text.__NVIC_SetPendingIRQ), (24 bytes).
    Removing stm32g0xx_hal_cortex.o(.ARM.exidx.text.__NVIC_SetPendingIRQ), (8 bytes).
    Removing stm32g0xx_hal_cortex.o(.text.HAL_NVIC_GetPendingIRQ), (8 bytes).
    Removing stm32g0xx_hal_cortex.o(.ARM.exidx.text.HAL_NVIC_GetPendingIRQ), (8 bytes).
    Removing stm32g0xx_hal_cortex.o(.text.__NVIC_GetPendingIRQ), (28 bytes).
    Removing stm32g0xx_hal_cortex.o(.ARM.exidx.text.__NVIC_GetPendingIRQ), (8 bytes).
    Removing stm32g0xx_hal_cortex.o(.text.HAL_NVIC_ClearPendingIRQ), (8 bytes).
    Removing stm32g0xx_hal_cortex.o(.ARM.exidx.text.HAL_NVIC_ClearPendingIRQ), (8 bytes).
    Removing stm32g0xx_hal_cortex.o(.text.__NVIC_ClearPendingIRQ), (24 bytes).
    Removing stm32g0xx_hal_cortex.o(.ARM.exidx.text.__NVIC_ClearPendingIRQ), (8 bytes).
    Removing stm32g0xx_hal_cortex.o(.text.HAL_SYSTICK_CLKSourceConfig), (28 bytes).
    Removing stm32g0xx_hal_cortex.o(.ARM.exidx.text.HAL_SYSTICK_CLKSourceConfig), (8 bytes).
    Removing stm32g0xx_hal_cortex.o(.text.HAL_SYSTICK_IRQHandler), (8 bytes).
    Removing stm32g0xx_hal_cortex.o(.ARM.exidx.text.HAL_SYSTICK_IRQHandler), (8 bytes).
    Removing stm32g0xx_hal_cortex.o(.text.HAL_SYSTICK_Callback), (2 bytes).
    Removing stm32g0xx_hal_cortex.o(.ARM.exidx.text.HAL_SYSTICK_Callback), (8 bytes).
    Removing stm32g0xx_hal_cortex.o(.text.HAL_MPU_Enable), (24 bytes).
    Removing stm32g0xx_hal_cortex.o(.ARM.exidx.text.HAL_MPU_Enable), (8 bytes).
    Removing stm32g0xx_hal_cortex.o(.text.HAL_MPU_Disable), (16 bytes).
    Removing stm32g0xx_hal_cortex.o(.ARM.exidx.text.HAL_MPU_Disable), (8 bytes).
    Removing stm32g0xx_hal_cortex.o(.text.HAL_MPU_ConfigRegion), (84 bytes).
    Removing stm32g0xx_hal_cortex.o(.ARM.exidx.text.HAL_MPU_ConfigRegion), (8 bytes).
    Removing stm32g0xx_hal.o(.text), (0 bytes).
    Removing stm32g0xx_hal.o(.ARM.exidx.text.HAL_Init), (8 bytes).
    Removing stm32g0xx_hal.o(.ARM.exidx.text.HAL_InitTick), (8 bytes).
    Removing stm32g0xx_hal.o(.text.HAL_MspInit), (2 bytes).
    Removing stm32g0xx_hal.o(.ARM.exidx.text.HAL_MspInit), (8 bytes).
    Removing stm32g0xx_hal.o(.text.HAL_DeInit), (36 bytes).
    Removing stm32g0xx_hal.o(.ARM.exidx.text.HAL_DeInit), (8 bytes).
    Removing stm32g0xx_hal.o(.text.HAL_MspDeInit), (2 bytes).
    Removing stm32g0xx_hal.o(.ARM.exidx.text.HAL_MspDeInit), (8 bytes).
    Removing stm32g0xx_hal.o(.ARM.exidx.text.HAL_IncTick), (8 bytes).
    Removing stm32g0xx_hal.o(.ARM.exidx.text.HAL_GetTick), (8 bytes).
    Removing stm32g0xx_hal.o(.text.HAL_GetTickPrio), (12 bytes).
    Removing stm32g0xx_hal.o(.ARM.exidx.text.HAL_GetTickPrio), (8 bytes).
    Removing stm32g0xx_hal.o(.text.HAL_SetTickFreq), (40 bytes).
    Removing stm32g0xx_hal.o(.ARM.exidx.text.HAL_SetTickFreq), (8 bytes).
    Removing stm32g0xx_hal.o(.text.HAL_GetTickFreq), (12 bytes).
    Removing stm32g0xx_hal.o(.ARM.exidx.text.HAL_GetTickFreq), (8 bytes).
    Removing stm32g0xx_hal.o(.ARM.exidx.text.HAL_Delay), (8 bytes).
    Removing stm32g0xx_hal.o(.ARM.exidx.text.HAL_SuspendTick), (8 bytes).
    Removing stm32g0xx_hal.o(.ARM.exidx.text.HAL_ResumeTick), (8 bytes).
    Removing stm32g0xx_hal.o(.text.HAL_GetHalVersion), (8 bytes).
    Removing stm32g0xx_hal.o(.ARM.exidx.text.HAL_GetHalVersion), (8 bytes).
    Removing stm32g0xx_hal.o(.text.HAL_GetREVID), (12 bytes).
    Removing stm32g0xx_hal.o(.ARM.exidx.text.HAL_GetREVID), (8 bytes).
    Removing stm32g0xx_hal.o(.text.HAL_GetDEVID), (20 bytes).
    Removing stm32g0xx_hal.o(.ARM.exidx.text.HAL_GetDEVID), (8 bytes).
    Removing stm32g0xx_hal.o(.text.HAL_GetUIDw0), (12 bytes).
    Removing stm32g0xx_hal.o(.ARM.exidx.text.HAL_GetUIDw0), (8 bytes).
    Removing stm32g0xx_hal.o(.text.HAL_GetUIDw1), (12 bytes).
    Removing stm32g0xx_hal.o(.ARM.exidx.text.HAL_GetUIDw1), (8 bytes).
    Removing stm32g0xx_hal.o(.text.HAL_GetUIDw2), (12 bytes).
    Removing stm32g0xx_hal.o(.ARM.exidx.text.HAL_GetUIDw2), (8 bytes).
    Removing stm32g0xx_hal.o(.text.HAL_DBGMCU_EnableDBGStopMode), (16 bytes).
    Removing stm32g0xx_hal.o(.ARM.exidx.text.HAL_DBGMCU_EnableDBGStopMode), (8 bytes).
    Removing stm32g0xx_hal.o(.text.HAL_DBGMCU_DisableDBGStopMode), (16 bytes).
    Removing stm32g0xx_hal.o(.ARM.exidx.text.HAL_DBGMCU_DisableDBGStopMode), (8 bytes).
    Removing stm32g0xx_hal.o(.text.HAL_DBGMCU_EnableDBGStandbyMode), (16 bytes).
    Removing stm32g0xx_hal.o(.ARM.exidx.text.HAL_DBGMCU_EnableDBGStandbyMode), (8 bytes).
    Removing stm32g0xx_hal.o(.text.HAL_DBGMCU_DisableDBGStandbyMode), (16 bytes).
    Removing stm32g0xx_hal.o(.ARM.exidx.text.HAL_DBGMCU_DisableDBGStandbyMode), (8 bytes).
    Removing stm32g0xx_hal.o(.text.HAL_SYSCFG_VREFBUF_VoltageScalingConfig), (20 bytes).
    Removing stm32g0xx_hal.o(.ARM.exidx.text.HAL_SYSCFG_VREFBUF_VoltageScalingConfig), (8 bytes).
    Removing stm32g0xx_hal.o(.text.HAL_SYSCFG_VREFBUF_HighImpedanceConfig), (20 bytes).
    Removing stm32g0xx_hal.o(.ARM.exidx.text.HAL_SYSCFG_VREFBUF_HighImpedanceConfig), (8 bytes).
    Removing stm32g0xx_hal.o(.text.HAL_SYSCFG_VREFBUF_TrimmingConfig), (20 bytes).
    Removing stm32g0xx_hal.o(.ARM.exidx.text.HAL_SYSCFG_VREFBUF_TrimmingConfig), (8 bytes).
    Removing stm32g0xx_hal.o(.text.HAL_SYSCFG_EnableVREFBUF), (48 bytes).
    Removing stm32g0xx_hal.o(.ARM.exidx.text.HAL_SYSCFG_EnableVREFBUF), (8 bytes).
    Removing stm32g0xx_hal.o(.text.HAL_SYSCFG_DisableVREFBUF), (16 bytes).
    Removing stm32g0xx_hal.o(.ARM.exidx.text.HAL_SYSCFG_DisableVREFBUF), (8 bytes).
    Removing stm32g0xx_hal.o(.text.HAL_SYSCFG_EnableIOAnalogSwitchBooster), (20 bytes).
    Removing stm32g0xx_hal.o(.ARM.exidx.text.HAL_SYSCFG_EnableIOAnalogSwitchBooster), (8 bytes).
    Removing stm32g0xx_hal.o(.text.HAL_SYSCFG_DisableIOAnalogSwitchBooster), (20 bytes).
    Removing stm32g0xx_hal.o(.ARM.exidx.text.HAL_SYSCFG_DisableIOAnalogSwitchBooster), (8 bytes).
    Removing stm32g0xx_hal.o(.text.HAL_SYSCFG_EnableRemap), (16 bytes).
    Removing stm32g0xx_hal.o(.ARM.exidx.text.HAL_SYSCFG_EnableRemap), (8 bytes).
    Removing stm32g0xx_hal.o(.text.HAL_SYSCFG_DisableRemap), (16 bytes).
    Removing stm32g0xx_hal.o(.ARM.exidx.text.HAL_SYSCFG_DisableRemap), (8 bytes).
    Removing stm32g0xx_hal.o(.text.HAL_SYSCFG_EnableClampingDiode), (16 bytes).
    Removing stm32g0xx_hal.o(.ARM.exidx.text.HAL_SYSCFG_EnableClampingDiode), (8 bytes).
    Removing stm32g0xx_hal.o(.text.HAL_SYSCFG_DisableClampingDiode), (16 bytes).
    Removing stm32g0xx_hal.o(.ARM.exidx.text.HAL_SYSCFG_DisableClampingDiode), (8 bytes).
    Removing stm32g0xx_hal.o(.ARM.exidx.text.HAL_SYSCFG_StrobeDBattpinsConfig), (8 bytes).
    Removing stm32g0xx_hal_exti.o(.text), (0 bytes).
    Removing stm32g0xx_hal_exti.o(.text.HAL_EXTI_SetConfigLine), (164 bytes).
    Removing stm32g0xx_hal_exti.o(.ARM.exidx.text.HAL_EXTI_SetConfigLine), (8 bytes).
    Removing stm32g0xx_hal_exti.o(.text.HAL_EXTI_GetConfigLine), (148 bytes).
    Removing stm32g0xx_hal_exti.o(.ARM.exidx.text.HAL_EXTI_GetConfigLine), (8 bytes).
    Removing stm32g0xx_hal_exti.o(.text.HAL_EXTI_ClearConfigLine), (116 bytes).
    Removing stm32g0xx_hal_exti.o(.ARM.exidx.text.HAL_EXTI_ClearConfigLine), (8 bytes).
    Removing stm32g0xx_hal_exti.o(.text.HAL_EXTI_RegisterCallback), (30 bytes).
    Removing stm32g0xx_hal_exti.o(.ARM.exidx.text.HAL_EXTI_RegisterCallback), (8 bytes).
    Removing stm32g0xx_hal_exti.o(.text.HAL_EXTI_GetHandle), (14 bytes).
    Removing stm32g0xx_hal_exti.o(.ARM.exidx.text.HAL_EXTI_GetHandle), (8 bytes).
    Removing stm32g0xx_hal_exti.o(.text.HAL_EXTI_IRQHandler), (68 bytes).
    Removing stm32g0xx_hal_exti.o(.ARM.exidx.text.HAL_EXTI_IRQHandler), (8 bytes).
    Removing stm32g0xx_hal_exti.o(.text.HAL_EXTI_GetPending), (40 bytes).
    Removing stm32g0xx_hal_exti.o(.ARM.exidx.text.HAL_EXTI_GetPending), (8 bytes).
    Removing stm32g0xx_hal_exti.o(.text.HAL_EXTI_ClearPending), (36 bytes).
    Removing stm32g0xx_hal_exti.o(.ARM.exidx.text.HAL_EXTI_ClearPending), (8 bytes).
    Removing stm32g0xx_hal_exti.o(.text.HAL_EXTI_GenerateSWI), (28 bytes).
    Removing stm32g0xx_hal_exti.o(.ARM.exidx.text.HAL_EXTI_GenerateSWI), (8 bytes).
    Removing stm32g0xx_hal_tim.o(.text), (0 bytes).
    Removing stm32g0xx_hal_tim_ex.o(.text), (0 bytes).
    Removing stm32g0xx_hal_uart.o(.text), (0 bytes).
    Removing stm32g0xx_hal_uart.o(.ARM.exidx.text.HAL_UART_Init), (8 bytes).
    Removing stm32g0xx_hal_uart.o(.text.HAL_UART_MspInit), (2 bytes).
    Removing stm32g0xx_hal_uart.o(.ARM.exidx.text.HAL_UART_MspInit), (8 bytes).
    Removing stm32g0xx_hal_uart.o(.ARM.exidx.text.UART_SetConfig), (8 bytes).
    Removing stm32g0xx_hal_uart.o(.ARM.exidx.text.UART_AdvFeatureConfig), (8 bytes).
    Removing stm32g0xx_hal_uart.o(.ARM.exidx.text.UART_CheckIdleState), (8 bytes).
    Removing stm32g0xx_hal_uart.o(.text.HAL_HalfDuplex_Init), (116 bytes).
    Removing stm32g0xx_hal_uart.o(.ARM.exidx.text.HAL_HalfDuplex_Init), (8 bytes).
    Removing stm32g0xx_hal_uart.o(.text.HAL_LIN_Init), (146 bytes).
    Removing stm32g0xx_hal_uart.o(.ARM.exidx.text.HAL_LIN_Init), (8 bytes).
    Removing stm32g0xx_hal_uart.o(.text.HAL_MultiProcessor_Init), (144 bytes).
    Removing stm32g0xx_hal_uart.o(.ARM.exidx.text.HAL_MultiProcessor_Init), (8 bytes).
    Removing stm32g0xx_hal_uart.o(.ARM.exidx.text.HAL_UART_DeInit), (8 bytes).
    Removing stm32g0xx_hal_uart.o(.text.HAL_UART_MspDeInit), (2 bytes).
    Removing stm32g0xx_hal_uart.o(.ARM.exidx.text.HAL_UART_MspDeInit), (8 bytes).
    Removing stm32g0xx_hal_uart.o(.ARM.exidx.text.HAL_UART_Transmit), (8 bytes).
    Removing stm32g0xx_hal_uart.o(.ARM.exidx.text.UART_WaitOnFlagUntilTimeout), (8 bytes).
    Removing stm32g0xx_hal_uart.o(.text.HAL_UART_Receive), (308 bytes).
    Removing stm32g0xx_hal_uart.o(.ARM.exidx.text.HAL_UART_Receive), (8 bytes).
    Removing stm32g0xx_hal_uart.o(.text.HAL_UART_Transmit_IT), (192 bytes).
    Removing stm32g0xx_hal_uart.o(.ARM.exidx.text.HAL_UART_Transmit_IT), (8 bytes).
    Removing stm32g0xx_hal_uart.o(.text.UART_TxISR_16BIT_FIFOEN), (92 bytes).
    Removing stm32g0xx_hal_uart.o(.ARM.exidx.text.UART_TxISR_16BIT_FIFOEN), (8 bytes).
    Removing stm32g0xx_hal_uart.o(.text.UART_TxISR_8BIT_FIFOEN), (82 bytes).
    Removing stm32g0xx_hal_uart.o(.ARM.exidx.text.UART_TxISR_8BIT_FIFOEN), (8 bytes).
    Removing stm32g0xx_hal_uart.o(.text.UART_TxISR_16BIT), (68 bytes).
    Removing stm32g0xx_hal_uart.o(.ARM.exidx.text.UART_TxISR_16BIT), (8 bytes).
    Removing stm32g0xx_hal_uart.o(.text.UART_TxISR_8BIT), (60 bytes).
    Removing stm32g0xx_hal_uart.o(.ARM.exidx.text.UART_TxISR_8BIT), (8 bytes).
    Removing stm32g0xx_hal_uart.o(.ARM.exidx.text.HAL_UART_Receive_IT), (8 bytes).
    Removing stm32g0xx_hal_uart.o(.ARM.exidx.text.UART_Start_Receive_IT), (8 bytes).
    Removing stm32g0xx_hal_uart.o(.text.HAL_UART_Transmit_DMA), (168 bytes).
    Removing stm32g0xx_hal_uart.o(.ARM.exidx.text.HAL_UART_Transmit_DMA), (8 bytes).
    Removing stm32g0xx_hal_uart.o(.text.UART_DMATransmitCplt), (46 bytes).
    Removing stm32g0xx_hal_uart.o(.ARM.exidx.text.UART_DMATransmitCplt), (8 bytes).
    Removing stm32g0xx_hal_uart.o(.text.UART_DMATxHalfCplt), (10 bytes).
    Removing stm32g0xx_hal_uart.o(.ARM.exidx.text.UART_DMATxHalfCplt), (8 bytes).
    Removing stm32g0xx_hal_uart.o(.text.UART_DMAError), (86 bytes).
    Removing stm32g0xx_hal_uart.o(.ARM.exidx.text.UART_DMAError), (8 bytes).
    Removing stm32g0xx_hal_uart.o(.text.HAL_UART_Receive_DMA), (78 bytes).
    Removing stm32g0xx_hal_uart.o(.ARM.exidx.text.HAL_UART_Receive_DMA), (8 bytes).
    Removing stm32g0xx_hal_uart.o(.text.UART_Start_Receive_DMA), (124 bytes).
    Removing stm32g0xx_hal_uart.o(.ARM.exidx.text.UART_Start_Receive_DMA), (8 bytes).
    Removing stm32g0xx_hal_uart.o(.text.HAL_UART_DMAPause), (82 bytes).
    Removing stm32g0xx_hal_uart.o(.ARM.exidx.text.HAL_UART_DMAPause), (8 bytes).
    Removing stm32g0xx_hal_uart.o(.text.HAL_UART_DMAResume), (76 bytes).
    Removing stm32g0xx_hal_uart.o(.ARM.exidx.text.HAL_UART_DMAResume), (8 bytes).
    Removing stm32g0xx_hal_uart.o(.text.HAL_UART_DMAStop), (140 bytes).
    Removing stm32g0xx_hal_uart.o(.ARM.exidx.text.HAL_UART_DMAStop), (8 bytes).
    Removing stm32g0xx_hal_uart.o(.text.UART_EndTxTransfer), (28 bytes).
    Removing stm32g0xx_hal_uart.o(.ARM.exidx.text.UART_EndTxTransfer), (8 bytes).
    Removing stm32g0xx_hal_uart.o(.ARM.exidx.text.UART_EndRxTransfer), (8 bytes).
    Removing stm32g0xx_hal_uart.o(.text.HAL_UART_Abort), (196 bytes).
    Removing stm32g0xx_hal_uart.o(.ARM.exidx.text.HAL_UART_Abort), (8 bytes).
    Removing stm32g0xx_hal_uart.o(.text.HAL_UART_AbortTransmit), (110 bytes).
    Removing stm32g0xx_hal_uart.o(.ARM.exidx.text.HAL_UART_AbortTransmit), (8 bytes).
    Removing stm32g0xx_hal_uart.o(.text.HAL_UART_AbortReceive), (128 bytes).
    Removing stm32g0xx_hal_uart.o(.ARM.exidx.text.HAL_UART_AbortReceive), (8 bytes).
    Removing stm32g0xx_hal_uart.o(.text.HAL_UART_Abort_IT), (244 bytes).
    Removing stm32g0xx_hal_uart.o(.ARM.exidx.text.HAL_UART_Abort_IT), (8 bytes).
    Removing stm32g0xx_hal_uart.o(.text.UART_DMATxAbortCallback), (76 bytes).
    Removing stm32g0xx_hal_uart.o(.ARM.exidx.text.UART_DMATxAbortCallback), (8 bytes).
    Removing stm32g0xx_hal_uart.o(.text.UART_DMARxAbortCallback), (66 bytes).
    Removing stm32g0xx_hal_uart.o(.ARM.exidx.text.UART_DMARxAbortCallback), (8 bytes).
    Removing stm32g0xx_hal_uart.o(.text.HAL_UART_AbortCpltCallback), (2 bytes).
    Removing stm32g0xx_hal_uart.o(.ARM.exidx.text.HAL_UART_AbortCpltCallback), (8 bytes).
    Removing stm32g0xx_hal_uart.o(.text.HAL_UART_AbortTransmit_IT), (136 bytes).
    Removing stm32g0xx_hal_uart.o(.ARM.exidx.text.HAL_UART_AbortTransmit_IT), (8 bytes).
    Removing stm32g0xx_hal_uart.o(.text.UART_DMATxOnlyAbortCallback), (44 bytes).
    Removing stm32g0xx_hal_uart.o(.ARM.exidx.text.UART_DMATxOnlyAbortCallback), (8 bytes).
    Removing stm32g0xx_hal_uart.o(.text.HAL_UART_AbortTransmitCpltCallback), (2 bytes).
    Removing stm32g0xx_hal_uart.o(.ARM.exidx.text.HAL_UART_AbortTransmitCpltCallback), (8 bytes).
    Removing stm32g0xx_hal_uart.o(.text.HAL_UART_AbortReceive_IT), (156 bytes).
    Removing stm32g0xx_hal_uart.o(.ARM.exidx.text.HAL_UART_AbortReceive_IT), (8 bytes).
    Removing stm32g0xx_hal_uart.o(.text.UART_DMARxOnlyAbortCallback), (38 bytes).
    Removing stm32g0xx_hal_uart.o(.ARM.exidx.text.UART_DMARxOnlyAbortCallback), (8 bytes).
    Removing stm32g0xx_hal_uart.o(.text.HAL_UART_AbortReceiveCpltCallback), (2 bytes).
    Removing stm32g0xx_hal_uart.o(.ARM.exidx.text.HAL_UART_AbortReceiveCpltCallback), (8 bytes).
    Removing stm32g0xx_hal_uart.o(.ARM.exidx.text.HAL_UART_IRQHandler), (8 bytes).
    Removing stm32g0xx_hal_uart.o(.ARM.exidx.text.UART_DMAAbortOnError), (8 bytes).
    Removing stm32g0xx_hal_uart.o(.ARM.exidx.text.HAL_UART_ErrorCallback), (8 bytes).
    Removing stm32g0xx_hal_uart.o(.ARM.exidx.text.HAL_UARTEx_RxEventCallback), (8 bytes).
    Removing stm32g0xx_hal_uart.o(.ARM.exidx.text.UART_EndTransmit_IT), (8 bytes).
    Removing stm32g0xx_hal_uart.o(.ARM.exidx.text.HAL_UART_TxCpltCallback), (8 bytes).
    Removing stm32g0xx_hal_uart.o(.text.HAL_UART_TxHalfCpltCallback), (2 bytes).
    Removing stm32g0xx_hal_uart.o(.ARM.exidx.text.HAL_UART_TxHalfCpltCallback), (8 bytes).
    Removing stm32g0xx_hal_uart.o(.text.HAL_UART_RxCpltCallback), (2 bytes).
    Removing stm32g0xx_hal_uart.o(.ARM.exidx.text.HAL_UART_RxCpltCallback), (8 bytes).
    Removing stm32g0xx_hal_uart.o(.text.HAL_UART_RxHalfCpltCallback), (2 bytes).
    Removing stm32g0xx_hal_uart.o(.ARM.exidx.text.HAL_UART_RxHalfCpltCallback), (8 bytes).
    Removing stm32g0xx_hal_uart.o(.text.HAL_UART_ReceiverTimeout_Config), (36 bytes).
    Removing stm32g0xx_hal_uart.o(.ARM.exidx.text.HAL_UART_ReceiverTimeout_Config), (8 bytes).
    Removing stm32g0xx_hal_uart.o(.text.HAL_UART_EnableReceiverTimeout), (68 bytes).
    Removing stm32g0xx_hal_uart.o(.ARM.exidx.text.HAL_UART_EnableReceiverTimeout), (8 bytes).
    Removing stm32g0xx_hal_uart.o(.text.HAL_UART_DisableReceiverTimeout), (68 bytes).
    Removing stm32g0xx_hal_uart.o(.ARM.exidx.text.HAL_UART_DisableReceiverTimeout), (8 bytes).
    Removing stm32g0xx_hal_uart.o(.text.HAL_MultiProcessor_EnableMuteMode), (46 bytes).
    Removing stm32g0xx_hal_uart.o(.ARM.exidx.text.HAL_MultiProcessor_EnableMuteMode), (8 bytes).
    Removing stm32g0xx_hal_uart.o(.text.HAL_MultiProcessor_DisableMuteMode), (46 bytes).
    Removing stm32g0xx_hal_uart.o(.ARM.exidx.text.HAL_MultiProcessor_DisableMuteMode), (8 bytes).
    Removing stm32g0xx_hal_uart.o(.text.HAL_MultiProcessor_EnterMuteMode), (12 bytes).
    Removing stm32g0xx_hal_uart.o(.ARM.exidx.text.HAL_MultiProcessor_EnterMuteMode), (8 bytes).
    Removing stm32g0xx_hal_uart.o(.text.HAL_HalfDuplex_EnableTransmitter), (48 bytes).
    Removing stm32g0xx_hal_uart.o(.ARM.exidx.text.HAL_HalfDuplex_EnableTransmitter), (8 bytes).
    Removing stm32g0xx_hal_uart.o(.text.HAL_HalfDuplex_EnableReceiver), (48 bytes).
    Removing stm32g0xx_hal_uart.o(.ARM.exidx.text.HAL_HalfDuplex_EnableReceiver), (8 bytes).
    Removing stm32g0xx_hal_uart.o(.text.HAL_LIN_SendBreak), (40 bytes).
    Removing stm32g0xx_hal_uart.o(.ARM.exidx.text.HAL_LIN_SendBreak), (8 bytes).
    Removing stm32g0xx_hal_uart.o(.text.HAL_UART_GetState), (12 bytes).
    Removing stm32g0xx_hal_uart.o(.ARM.exidx.text.HAL_UART_GetState), (8 bytes).
    Removing stm32g0xx_hal_uart.o(.text.HAL_UART_GetError), (6 bytes).
    Removing stm32g0xx_hal_uart.o(.ARM.exidx.text.HAL_UART_GetError), (8 bytes).
    Removing stm32g0xx_hal_uart.o(.ARM.exidx.text.UART_RxISR_16BIT_FIFOEN), (8 bytes).
    Removing stm32g0xx_hal_uart.o(.ARM.exidx.text.UART_RxISR_8BIT_FIFOEN), (8 bytes).
    Removing stm32g0xx_hal_uart.o(.ARM.exidx.text.UART_RxISR_16BIT), (8 bytes).
    Removing stm32g0xx_hal_uart.o(.ARM.exidx.text.UART_RxISR_8BIT), (8 bytes).
    Removing stm32g0xx_hal_uart.o(.text.UART_DMAReceiveCplt), (86 bytes).
    Removing stm32g0xx_hal_uart.o(.ARM.exidx.text.UART_DMAReceiveCplt), (8 bytes).
    Removing stm32g0xx_hal_uart.o(.text.UART_DMARxHalfCplt), (28 bytes).
    Removing stm32g0xx_hal_uart.o(.ARM.exidx.text.UART_DMARxHalfCplt), (8 bytes).
    Removing stm32g0xx_hal_uart_ex.o(.text), (0 bytes).
    Removing stm32g0xx_hal_uart_ex.o(.text.HAL_RS485Ex_Init), (140 bytes).
    Removing stm32g0xx_hal_uart_ex.o(.ARM.exidx.text.HAL_RS485Ex_Init), (8 bytes).
    Removing stm32g0xx_hal_uart_ex.o(.ARM.exidx.text.HAL_UARTEx_WakeupCallback), (8 bytes).
    Removing stm32g0xx_hal_uart_ex.o(.ARM.exidx.text.HAL_UARTEx_RxFifoFullCallback), (8 bytes).
    Removing stm32g0xx_hal_uart_ex.o(.ARM.exidx.text.HAL_UARTEx_TxFifoEmptyCallback), (8 bytes).
    Removing stm32g0xx_hal_uart_ex.o(.text.HAL_MultiProcessorEx_AddressLength_Set), (48 bytes).
    Removing stm32g0xx_hal_uart_ex.o(.ARM.exidx.text.HAL_MultiProcessorEx_AddressLength_Set), (8 bytes).
    Removing stm32g0xx_hal_uart_ex.o(.text.HAL_UARTEx_StopModeWakeUpSourceConfig), (116 bytes).
    Removing stm32g0xx_hal_uart_ex.o(.ARM.exidx.text.HAL_UARTEx_StopModeWakeUpSourceConfig), (8 bytes).
    Removing stm32g0xx_hal_uart_ex.o(.text.UARTEx_Wakeup_AddressConfig), (32 bytes).
    Removing stm32g0xx_hal_uart_ex.o(.ARM.exidx.text.UARTEx_Wakeup_AddressConfig), (8 bytes).
    Removing stm32g0xx_hal_uart_ex.o(.text.HAL_UARTEx_EnableStopMode), (34 bytes).
    Removing stm32g0xx_hal_uart_ex.o(.ARM.exidx.text.HAL_UARTEx_EnableStopMode), (8 bytes).
    Removing stm32g0xx_hal_uart_ex.o(.text.HAL_UARTEx_DisableStopMode), (34 bytes).
    Removing stm32g0xx_hal_uart_ex.o(.ARM.exidx.text.HAL_UARTEx_DisableStopMode), (8 bytes).
    Removing stm32g0xx_hal_uart_ex.o(.text.HAL_UARTEx_EnableFifoMode), (58 bytes).
    Removing stm32g0xx_hal_uart_ex.o(.ARM.exidx.text.HAL_UARTEx_EnableFifoMode), (8 bytes).
    Removing stm32g0xx_hal_uart_ex.o(.ARM.exidx.text.UARTEx_SetNbDataToProcess), (8 bytes).
    Removing stm32g0xx_hal_uart_ex.o(.ARM.exidx.text.HAL_UARTEx_DisableFifoMode), (8 bytes).
    Removing stm32g0xx_hal_uart_ex.o(.ARM.exidx.text.HAL_UARTEx_SetTxFifoThreshold), (8 bytes).
    Removing stm32g0xx_hal_uart_ex.o(.ARM.exidx.text.HAL_UARTEx_SetRxFifoThreshold), (8 bytes).
    Removing stm32g0xx_hal_uart_ex.o(.text.HAL_UARTEx_ReceiveToIdle), (388 bytes).
    Removing stm32g0xx_hal_uart_ex.o(.ARM.exidx.text.HAL_UARTEx_ReceiveToIdle), (8 bytes).
    Removing stm32g0xx_hal_uart_ex.o(.text.HAL_UARTEx_ReceiveToIdle_IT), (110 bytes).
    Removing stm32g0xx_hal_uart_ex.o(.ARM.exidx.text.HAL_UARTEx_ReceiveToIdle_IT), (8 bytes).
    Removing stm32g0xx_hal_uart_ex.o(.text.HAL_UARTEx_ReceiveToIdle_DMA), (110 bytes).
    Removing stm32g0xx_hal_uart_ex.o(.ARM.exidx.text.HAL_UARTEx_ReceiveToIdle_DMA), (8 bytes).
    Removing system_stm32g0xx.o(.text), (0 bytes).
    Removing system_stm32g0xx.o(.ARM.exidx.text.SystemInit), (8 bytes).
    Removing system_stm32g0xx.o(.text.SystemCoreClockUpdate), (144 bytes).
    Removing system_stm32g0xx.o(.ARM.exidx.text.SystemCoreClockUpdate), (8 bytes).
    Removing powermanagement.o(.text), (0 bytes).
    Removing powermanagement.o(.ARM.exidx.text.SystemEnterLowerPower), (8 bytes).
    Removing powermanagement.o(.ARM.exidx.text.LowPowerPreProc), (8 bytes).
    Removing powermanagement.o(.ARM.exidx.text.EnterSleepMode), (8 bytes).
    Removing powermanagement.o(.ARM.exidx.text.ExitLowPowerMode), (8 bytes).
    Removing powermanagement.o(.ARM.exidx.text.CAN2_RX_CfgExtiMode), (8 bytes).
    Removing debug.o(.text), (0 bytes).
    Removing debug.o(.ARM.exidx.text.os_time_get), (8 bytes).
    Removing debug.o(.ARM.exidx.text.HAL_UART_RxCpltCallback), (8 bytes).
    Removing debug.o(.ARM.exidx.text.AT_DeviceHandle), (8 bytes).
    Removing debug.o(.ARM.exidx.text.fputc), (8 bytes).
    Removing debug.o(.ARM.exidx.text.OnCfgDebug), (8 bytes).
    Removing debug.o(.data.dbg_Fram_Record), (8 bytes).
    Removing debug.o(.rodata.str1.4), (13 bytes).
    Removing dadd.o(.text), (356 bytes).
    Removing dfixul.o(.text), (64 bytes).
    Removing cdrcmple.o(.text), (40 bytes).

606 unused section(s) (total 18903 bytes) removed from the image.

==============================================================================

Image Symbol Table

    Local Symbols

    Symbol Name                              Value     Ov Type        Size  Object(Section)

    ../clib/division.s                       0x00000000   Number         0  aeabi_sdivfast.o ABSOLUTE
    ../clib/division.s                       0x00000000   Number         0  aeabi_sdivfast_div0.o ABSOLUTE
    ../clib/longlong.c                       0x00000000   Number         0  llmul.o ABSOLUTE
    ../clib/microlib/ctype/ctype.c           0x00000000   Number         0  isspace_c.o ABSOLUTE
    ../clib/microlib/ctype/ctype.c           0x00000000   Number         0  ctype_c.o ABSOLUTE
    ../clib/microlib/division.c              0x00000000   Number         0  uidiv.o ABSOLUTE
    ../clib/microlib/division.c              0x00000000   Number         0  uldiv.o ABSOLUTE
    ../clib/microlib/division.c              0x00000000   Number         0  uidiv_div0.o ABSOLUTE
    ../clib/microlib/division.c              0x00000000   Number         0  idiv_div0.o ABSOLUTE
    ../clib/microlib/division.c              0x00000000   Number         0  idiv0.o ABSOLUTE
    ../clib/microlib/init/entry.s            0x00000000   Number         0  entry.o ABSOLUTE
    ../clib/microlib/init/entry.s            0x00000000   Number         0  entry2.o ABSOLUTE
    ../clib/microlib/init/entry.s            0x00000000   Number         0  entry5.o ABSOLUTE
    ../clib/microlib/init/entry.s            0x00000000   Number         0  entry7a.o ABSOLUTE
    ../clib/microlib/init/entry.s            0x00000000   Number         0  entry7b.o ABSOLUTE
    ../clib/microlib/init/entry.s            0x00000000   Number         0  entry8a.o ABSOLUTE
    ../clib/microlib/init/entry.s            0x00000000   Number         0  entry8b.o ABSOLUTE
    ../clib/microlib/init/entry.s            0x00000000   Number         0  entry9a.o ABSOLUTE
    ../clib/microlib/init/entry.s            0x00000000   Number         0  entry9b.o ABSOLUTE
    ../clib/microlib/init/entry.s            0x00000000   Number         0  entry10a.o ABSOLUTE
    ../clib/microlib/init/entry.s            0x00000000   Number         0  entry10b.o ABSOLUTE
    ../clib/microlib/init/entry.s            0x00000000   Number         0  entry11a.o ABSOLUTE
    ../clib/microlib/init/entry.s            0x00000000   Number         0  entry11b.o ABSOLUTE
    ../clib/microlib/longlong.c              0x00000000   Number         0  llshl.o ABSOLUTE
    ../clib/microlib/longlong.c              0x00000000   Number         0  llushr.o ABSOLUTE
    ../clib/microlib/longlong.c              0x00000000   Number         0  llsshr.o ABSOLUTE
    ../clib/microlib/printf/printf.c         0x00000000   Number         0  printfb.o ABSOLUTE
    ../clib/microlib/printf/printf.c         0x00000000   Number         0  printf0.o ABSOLUTE
    ../clib/microlib/printf/printf.c         0x00000000   Number         0  printf1.o ABSOLUTE
    ../clib/microlib/printf/printf.c         0x00000000   Number         0  printf2.o ABSOLUTE
    ../clib/microlib/printf/printf.c         0x00000000   Number         0  printf3.o ABSOLUTE
    ../clib/microlib/printf/printf.c         0x00000000   Number         0  printf4.o ABSOLUTE
    ../clib/microlib/printf/printf.c         0x00000000   Number         0  printf5.o ABSOLUTE
    ../clib/microlib/printf/printf.c         0x00000000   Number         0  printf6.o ABSOLUTE
    ../clib/microlib/printf/printf.c         0x00000000   Number         0  printf7.o ABSOLUTE
    ../clib/microlib/printf/printf.c         0x00000000   Number         0  printf8.o ABSOLUTE
    ../clib/microlib/printf/printf.c         0x00000000   Number         0  printfa.o ABSOLUTE
    ../clib/microlib/printf/stubs.s          0x00000000   Number         0  printfstubs.o ABSOLUTE
    ../clib/microlib/scanf/stubs.s           0x00000000   Number         0  scanfstubs.o ABSOLUTE
    ../clib/microlib/stdio/puts.c            0x00000000   Number         0  puts.o ABSOLUTE
    ../clib/microlib/stdio/puts.c            0x00000000   Number         0  puts_e.o ABSOLUTE
    ../clib/microlib/stdio/streams.c         0x00000000   Number         0  stdout.o ABSOLUTE
    ../clib/microlib/string/memset.c         0x00000000   Number         0  memseta.o ABSOLUTE
    ../clib/microlib/string/strchr.c         0x00000000   Number         0  strchr.o ABSOLUTE
    ../clib/microlib/string/strlen.c         0x00000000   Number         0  strlen.o ABSOLUTE
    ../clib/microlib/stubs.s                 0x00000000   Number         0  iusefp.o ABSOLUTE
    ../clib/scanf.c                          0x00000000   Number         0  sscanf.o ABSOLUTE
    ../clib/scanf.c                          0x00000000   Number         0  _scanf_int.o ABSOLUTE
    ../clib/scanf.c                          0x00000000   Number         0  _chval.o ABSOLUTE
    ../clib/scanf.c                          0x00000000   Number         0  _scanf_longlong.o ABSOLUTE
    ../clib/scanf.c                          0x00000000   Number         0  _scanf_str.o ABSOLUTE
    ../clib/scanf.c                          0x00000000   Number         0  scanf_fp.o ABSOLUTE
    ../clib/scanf.c                          0x00000000   Number         0  scanf_char.o ABSOLUTE
    ../clib/scanf.c                          0x00000000   Number         0  _sgetc.o ABSOLUTE
    ../clib/scanf.c                          0x00000000   Number         0  _scanf.o ABSOLUTE
    ../fplib/microlib/d2f.c                  0x00000000   Number         0  d2f.o ABSOLUTE
    ../fplib/microlib/fpadd.c                0x00000000   Number         0  dadd.o ABSOLUTE
    ../fplib/microlib/fpdiv.c                0x00000000   Number         0  ddiv.o ABSOLUTE
    ../fplib/microlib/fpepilogue.c           0x00000000   Number         0  depilogue.o ABSOLUTE
    ../fplib/microlib/fpepilogue.c           0x00000000   Number         0  fepilogue.o ABSOLUTE
    ../fplib/microlib/fpfix.c                0x00000000   Number         0  dfixul.o ABSOLUTE
    ../fplib/microlib/fpflt.c                0x00000000   Number         0  dfltul.o ABSOLUTE
    ../fplib/microlib/fpmul.c                0x00000000   Number         0  dmul.o ABSOLUTE
    PowerManagement.c                        0x00000000   Number         0  powermanagement.o ABSOLUTE
    cdrcmple.s                               0x00000000   Number         0  cdrcmple.o ABSOLUTE
    dc.s                                     0x00000000   Number         0  dc.o ABSOLUTE
    debug.c                                  0x00000000   Number         0  debug.o ABSOLUTE
    gpio.c                                   0x00000000   Number         0  gpio.o ABSOLUTE
    handlers.s                               0x00000000   Number         0  handlers.o ABSOLUTE
    init.s                                   0x00000000   Number         0  init.o ABSOLUTE
    iwdg.c                                   0x00000000   Number         0  iwdg.o ABSOLUTE
    main.c                                   0x00000000   Number         0  main.o ABSOLUTE
    startup_stm32g0b1xx.s                    0x00000000   Number         0  startup_stm32g0b1xx.o ABSOLUTE
    stm32g0xx_hal.c                          0x00000000   Number         0  stm32g0xx_hal.o ABSOLUTE
    stm32g0xx_hal_cortex.c                   0x00000000   Number         0  stm32g0xx_hal_cortex.o ABSOLUTE
    stm32g0xx_hal_dma.c                      0x00000000   Number         0  stm32g0xx_hal_dma.o ABSOLUTE
    stm32g0xx_hal_dma_ex.c                   0x00000000   Number         0  stm32g0xx_hal_dma_ex.o ABSOLUTE
    stm32g0xx_hal_exti.c                     0x00000000   Number         0  stm32g0xx_hal_exti.o ABSOLUTE
    stm32g0xx_hal_flash.c                    0x00000000   Number         0  stm32g0xx_hal_flash.o ABSOLUTE
    stm32g0xx_hal_flash_ex.c                 0x00000000   Number         0  stm32g0xx_hal_flash_ex.o ABSOLUTE
    stm32g0xx_hal_gpio.c                     0x00000000   Number         0  stm32g0xx_hal_gpio.o ABSOLUTE
    stm32g0xx_hal_iwdg.c                     0x00000000   Number         0  stm32g0xx_hal_iwdg.o ABSOLUTE
    stm32g0xx_hal_msp.c                      0x00000000   Number         0  stm32g0xx_hal_msp.o ABSOLUTE
    stm32g0xx_hal_pwr.c                      0x00000000   Number         0  stm32g0xx_hal_pwr.o ABSOLUTE
    stm32g0xx_hal_pwr_ex.c                   0x00000000   Number         0  stm32g0xx_hal_pwr_ex.o ABSOLUTE
    stm32g0xx_hal_rcc.c                      0x00000000   Number         0  stm32g0xx_hal_rcc.o ABSOLUTE
    stm32g0xx_hal_rcc_ex.c                   0x00000000   Number         0  stm32g0xx_hal_rcc_ex.o ABSOLUTE
    stm32g0xx_hal_tim.c                      0x00000000   Number         0  stm32g0xx_hal_tim.o ABSOLUTE
    stm32g0xx_hal_tim_ex.c                   0x00000000   Number         0  stm32g0xx_hal_tim_ex.o ABSOLUTE
    stm32g0xx_hal_uart.c                     0x00000000   Number         0  stm32g0xx_hal_uart.o ABSOLUTE
    stm32g0xx_hal_uart_ex.c                  0x00000000   Number         0  stm32g0xx_hal_uart_ex.o ABSOLUTE
    stm32g0xx_it.c                           0x00000000   Number         0  stm32g0xx_it.o ABSOLUTE
    stm32g0xx_ll_dma.c                       0x00000000   Number         0  stm32g0xx_ll_dma.o ABSOLUTE
    stm32g0xx_ll_rcc.c                       0x00000000   Number         0  stm32g0xx_ll_rcc.o ABSOLUTE
    system_stm32g0xx.c                       0x00000000   Number         0  system_stm32g0xx.o ABSOLUTE
    usart.c                                  0x00000000   Number         0  usart.o ABSOLUTE
    RESET                                    0x08000000   Section      188  startup_stm32g0b1xx.o(RESET)
    .ARM.Collect$$$$00000000                 0x080000bc   Section        0  entry.o(.ARM.Collect$$$$00000000)
    .ARM.Collect$$$$00000001                 0x080000bc   Section        4  entry2.o(.ARM.Collect$$$$00000001)
    .ARM.Collect$$$$00000004                 0x080000c0   Section        4  entry5.o(.ARM.Collect$$$$00000004)
    .ARM.Collect$$$$00000008                 0x080000c4   Section        0  entry7b.o(.ARM.Collect$$$$00000008)
    .ARM.Collect$$$$0000000A                 0x080000c4   Section        0  entry8b.o(.ARM.Collect$$$$0000000A)
    .ARM.Collect$$$$0000000B                 0x080000c4   Section        8  entry9a.o(.ARM.Collect$$$$0000000B)
    __lit__00000000                          0x080000cc   Data           4  entry2.o(.ARM.Collect$$$$00002712)
    .ARM.Collect$$$$0000000D                 0x080000cc   Section        0  entry10a.o(.ARM.Collect$$$$0000000D)
    .ARM.Collect$$$$0000000F                 0x080000cc   Section        0  entry11a.o(.ARM.Collect$$$$0000000F)
    .ARM.Collect$$$$00002712                 0x080000cc   Section        4  entry2.o(.ARM.Collect$$$$00002712)
    .text                                    0x080000d0   Section       28  startup_stm32g0b1xx.o(.text)
    .text                                    0x080000ec   Section        0  uldiv.o(.text)
    .text                                    0x0800014c   Section        0  memseta.o(.text)
    .text                                    0x08000170   Section        0  strchr.o(.text)
    .text                                    0x08000184   Section        0  strlen.o(.text)
    .text                                    0x08000194   Section        0  sscanf.o(.text)
    .text                                    0x080001d0   Section        0  _scanf_int.o(.text)
    .text                                    0x0800031a   Section        0  uidiv_div0.o(.text)
    .text                                    0x08000358   Section        0  llshl.o(.text)
    .text                                    0x08000378   Section        0  llushr.o(.text)
    .text                                    0x0800039a   Section        0  _chval.o(.text)
    .text                                    0x080003b8   Section        0  _scanf_longlong.o(.text)
    .text                                    0x08000502   Section        0  _scanf_str.o(.text)
    _fp_value                                0x080005ed   Thumb Code   286  scanf_fp.o(.text)
    .text                                    0x080005ec   Section        0  scanf_fp.o(.text)
    _scanf_char_input                        0x08000961   Thumb Code    12  scanf_char.o(.text)
    .text                                    0x08000960   Section        0  scanf_char.o(.text)
    .text                                    0x0800098c   Section        0  _sgetc.o(.text)
    .text                                    0x080009d0   Section        0  iusefp.o(.text)
    .text                                    0x080009d0   Section        0  dmul.o(.text)
    .text                                    0x08000aa0   Section        0  ddiv.o(.text)
    .text                                    0x08000b90   Section       36  init.o(.text)
    .text                                    0x08000bb4   Section        0  llmul.o(.text)
    .text                                    0x08000be4   Section        0  isspace_c.o(.text)
    .text                                    0x08000bf4   Section        0  _scanf.o(.text)
    .text                                    0x08000f2c   Section        0  depilogue.o(.text)
    .text                                    0x08000fec   Section        0  dfltul.o(.text)
    .text                                    0x08001008   Section        0  d2f.o(.text)
    .text                                    0x08001040   Section        0  ctype_c.o(.text)
    .text                                    0x08001064   Section        0  fepilogue.o(.text)
    AT_DeviceHandle                          0x080010e9   Thumb Code   236  debug.o(.text.AT_DeviceHandle)
    [Anonymous Symbol]                       0x080010e8   Section        0  debug.o(.text.AT_DeviceHandle)
    __arm_cp.2_0                             0x080011d4   Number         4  debug.o(.text.AT_DeviceHandle)
    __arm_cp.2_1                             0x080011d8   Number         4  debug.o(.text.AT_DeviceHandle)
    __arm_cp.2_2                             0x080011dc   Number         4  debug.o(.text.AT_DeviceHandle)
    __arm_cp.2_3                             0x080011e0   Number         4  debug.o(.text.AT_DeviceHandle)
    __arm_cp.2_4                             0x080011e4   Number         4  debug.o(.text.AT_DeviceHandle)
    __arm_cp.2_5                             0x080011e8   Number         4  debug.o(.text.AT_DeviceHandle)
    __arm_cp.2_6                             0x080011ec   Number         4  debug.o(.text.AT_DeviceHandle)
    CAN2_RX_CfgExtiMode                      0x0800122d   Thumb Code    84  powermanagement.o(.text.CAN2_RX_CfgExtiMode)
    [Anonymous Symbol]                       0x0800122c   Section        0  powermanagement.o(.text.CAN2_RX_CfgExtiMode)
    __arm_cp.4_1                             0x08001280   Number         4  powermanagement.o(.text.CAN2_RX_CfgExtiMode)
    __arm_cp.4_2                             0x08001284   Number         4  powermanagement.o(.text.CAN2_RX_CfgExtiMode)
    [Anonymous Symbol]                       0x08001288   Section        0  stm32g0xx_it.o(.text.EXTI2_3_IRQHandler)
    [Anonymous Symbol]                       0x08001292   Section        0  stm32g0xx_it.o(.text.EXTI4_15_IRQHandler)
    EnterSleepMode                           0x080012a5   Thumb Code    32  powermanagement.o(.text.EnterSleepMode)
    [Anonymous Symbol]                       0x080012a4   Section        0  powermanagement.o(.text.EnterSleepMode)
    [Anonymous Symbol]                       0x080012c4   Section        0  main.o(.text.Error_Handler)
    ExitLowPowerMode                         0x080012cd   Thumb Code   324  powermanagement.o(.text.ExitLowPowerMode)
    [Anonymous Symbol]                       0x080012cc   Section        0  powermanagement.o(.text.ExitLowPowerMode)
    __arm_cp.3_0                             0x08001410   Number         4  powermanagement.o(.text.ExitLowPowerMode)
    __arm_cp.3_1                             0x08001414   Number         4  powermanagement.o(.text.ExitLowPowerMode)
    __arm_cp.3_2                             0x08001418   Number         4  powermanagement.o(.text.ExitLowPowerMode)
    __arm_cp.3_3                             0x0800141c   Number         4  powermanagement.o(.text.ExitLowPowerMode)
    __arm_cp.3_5                             0x08001424   Number         4  powermanagement.o(.text.ExitLowPowerMode)
    __arm_cp.3_6                             0x08001428   Number         4  powermanagement.o(.text.ExitLowPowerMode)
    __arm_cp.3_10                            0x08001450   Number         4  powermanagement.o(.text.ExitLowPowerMode)
    [Anonymous Symbol]                       0x08001454   Section        0  stm32g0xx_hal_dma.o(.text.HAL_DMA_Abort)
    [Anonymous Symbol]                       0x080014bc   Section        0  stm32g0xx_hal_dma.o(.text.HAL_DMA_Abort_IT)
    __arm_cp.8_0                             0x08001528   Number         4  stm32g0xx_hal_dma.o(.text.HAL_DMA_Abort_IT)
    [Anonymous Symbol]                       0x0800152c   Section        0  stm32g0xx_hal.o(.text.HAL_Delay)
    __arm_cp.10_0                            0x0800154c   Number         4  stm32g0xx_hal.o(.text.HAL_Delay)
    [Anonymous Symbol]                       0x08001550   Section        0  stm32g0xx_hal_gpio.o(.text.HAL_GPIO_DeInit)
    [Anonymous Symbol]                       0x08001640   Section        0  main.o(.text.HAL_GPIO_EXTI_Falling_Callback)
    __arm_cp.3_0                             0x08001700   Number         4  main.o(.text.HAL_GPIO_EXTI_Falling_Callback)
    __arm_cp.3_1                             0x08001704   Number         4  main.o(.text.HAL_GPIO_EXTI_Falling_Callback)
    __arm_cp.3_6                             0x0800172c   Number         4  main.o(.text.HAL_GPIO_EXTI_Falling_Callback)
    [Anonymous Symbol]                       0x08001730   Section        0  stm32g0xx_hal_gpio.o(.text.HAL_GPIO_EXTI_IRQHandler)
    __arm_cp.6_0                             0x08001754   Number         4  stm32g0xx_hal_gpio.o(.text.HAL_GPIO_EXTI_IRQHandler)
    [Anonymous Symbol]                       0x08001758   Section        0  stm32g0xx_hal_gpio.o(.text.HAL_GPIO_EXTI_Rising_Callback)
    [Anonymous Symbol]                       0x0800175c   Section        0  stm32g0xx_hal_gpio.o(.text.HAL_GPIO_Init)
    __arm_cp.0_0                             0x080018cc   Number         4  stm32g0xx_hal_gpio.o(.text.HAL_GPIO_Init)
    __arm_cp.0_1                             0x080018d0   Number         4  stm32g0xx_hal_gpio.o(.text.HAL_GPIO_Init)
    __arm_cp.0_2                             0x080018d4   Number         4  stm32g0xx_hal_gpio.o(.text.HAL_GPIO_Init)
    __arm_cp.0_3                             0x080018d8   Number         4  stm32g0xx_hal_gpio.o(.text.HAL_GPIO_Init)
    [Anonymous Symbol]                       0x080018dc   Section        0  stm32g0xx_hal_gpio.o(.text.HAL_GPIO_TogglePin)
    [Anonymous Symbol]                       0x080018ec   Section        0  stm32g0xx_hal_gpio.o(.text.HAL_GPIO_WritePin)
    [Anonymous Symbol]                       0x080018fc   Section        0  stm32g0xx_hal.o(.text.HAL_GetTick)
    [Anonymous Symbol]                       0x08001904   Section        0  stm32g0xx_hal_iwdg.o(.text.HAL_IWDG_Init)
    __arm_cp.0_0                             0x08001954   Number         4  stm32g0xx_hal_iwdg.o(.text.HAL_IWDG_Init)
    __arm_cp.0_1                             0x08001958   Number         4  stm32g0xx_hal_iwdg.o(.text.HAL_IWDG_Init)
    [Anonymous Symbol]                       0x0800195c   Section        0  stm32g0xx_hal_iwdg.o(.text.HAL_IWDG_Refresh)
    __arm_cp.1_0                             0x08001968   Number         4  stm32g0xx_hal_iwdg.o(.text.HAL_IWDG_Refresh)
    [Anonymous Symbol]                       0x0800196c   Section        0  stm32g0xx_hal.o(.text.HAL_IncTick)
    __arm_cp.5_1                             0x0800197c   Number         4  stm32g0xx_hal.o(.text.HAL_IncTick)
    [Anonymous Symbol]                       0x08001980   Section        0  stm32g0xx_hal.o(.text.HAL_Init)
    __arm_cp.0_0                             0x080019a8   Number         4  stm32g0xx_hal.o(.text.HAL_Init)
    [Anonymous Symbol]                       0x080019ac   Section        0  stm32g0xx_hal.o(.text.HAL_InitTick)
    __arm_cp.1_0                             0x080019ec   Number         4  stm32g0xx_hal.o(.text.HAL_InitTick)
    __arm_cp.1_2                             0x080019f0   Number         4  stm32g0xx_hal.o(.text.HAL_InitTick)
    [Anonymous Symbol]                       0x080019f4   Section        0  stm32g0xx_hal_msp.o(.text.HAL_MspInit)
    __arm_cp.0_0                             0x08001a28   Number         4  stm32g0xx_hal_msp.o(.text.HAL_MspInit)
    [Anonymous Symbol]                       0x08001a2c   Section        0  stm32g0xx_hal_cortex.o(.text.HAL_NVIC_DisableIRQ)
    [Anonymous Symbol]                       0x08001a34   Section        0  stm32g0xx_hal_cortex.o(.text.HAL_NVIC_EnableIRQ)
    [Anonymous Symbol]                       0x08001a3c   Section        0  stm32g0xx_hal_cortex.o(.text.HAL_NVIC_SetPriority)
    [Anonymous Symbol]                       0x08001a44   Section        0  stm32g0xx_hal_pwr_ex.o(.text.HAL_PWREx_ControlVoltageScaling)
    [Anonymous Symbol]                       0x08001a8c   Section        0  stm32g0xx_hal_pwr_ex.o(.text.HAL_PWREx_DisableLowPowerRunMode)
    __arm_cp.29_0                            0x08001ac8   Number         4  stm32g0xx_hal_pwr_ex.o(.text.HAL_PWREx_DisableLowPowerRunMode)
    __arm_cp.29_2                            0x08001acc   Number         4  stm32g0xx_hal_pwr_ex.o(.text.HAL_PWREx_DisableLowPowerRunMode)
    [Anonymous Symbol]                       0x08001ad0   Section        0  stm32g0xx_hal_pwr_ex.o(.text.HAL_PWREx_EnableLowPowerRunMode)
    [Anonymous Symbol]                       0x08001ae0   Section        0  stm32g0xx_hal_pwr_ex.o(.text.HAL_PWREx_EnterSHUTDOWNMode)
    [Anonymous Symbol]                       0x08001afc   Section        0  stm32g0xx_hal_pwr.o(.text.HAL_PWR_EnterSLEEPMode)
    __arm_cp.5_0                             0x08001b40   Number         4  stm32g0xx_hal_pwr.o(.text.HAL_PWR_EnterSLEEPMode)
    [Anonymous Symbol]                       0x08001b44   Section        0  stm32g0xx_hal_pwr.o(.text.HAL_PWR_EnterSTANDBYMode)
    [Anonymous Symbol]                       0x08001b60   Section        0  stm32g0xx_hal_pwr.o(.text.HAL_PWR_EnterSTOPMode)
    __arm_cp.6_0                             0x08001b94   Number         4  stm32g0xx_hal_pwr.o(.text.HAL_PWR_EnterSTOPMode)
    __arm_cp.6_1                             0x08001b98   Number         4  stm32g0xx_hal_pwr.o(.text.HAL_PWR_EnterSTOPMode)
    [Anonymous Symbol]                       0x08001b9c   Section        0  stm32g0xx_hal_rcc_ex.o(.text.HAL_RCCEx_PeriphCLKConfig)
    __arm_cp.0_0                             0x08001e40   Number         4  stm32g0xx_hal_rcc_ex.o(.text.HAL_RCCEx_PeriphCLKConfig)
    __arm_cp.0_1                             0x08001e44   Number         4  stm32g0xx_hal_rcc_ex.o(.text.HAL_RCCEx_PeriphCLKConfig)
    __arm_cp.0_2                             0x08001e48   Number         4  stm32g0xx_hal_rcc_ex.o(.text.HAL_RCCEx_PeriphCLKConfig)
    __arm_cp.0_3                             0x08001e4c   Number         4  stm32g0xx_hal_rcc_ex.o(.text.HAL_RCCEx_PeriphCLKConfig)
    __arm_cp.0_4                             0x08001e50   Number         4  stm32g0xx_hal_rcc_ex.o(.text.HAL_RCCEx_PeriphCLKConfig)
    __arm_cp.0_5                             0x08001e54   Number         4  stm32g0xx_hal_rcc_ex.o(.text.HAL_RCCEx_PeriphCLKConfig)
    [Anonymous Symbol]                       0x08001e58   Section        0  stm32g0xx_hal_rcc.o(.text.HAL_RCC_ClockConfig)
    __arm_cp.2_0                             0x08001fb8   Number         4  stm32g0xx_hal_rcc.o(.text.HAL_RCC_ClockConfig)
    __arm_cp.2_1                             0x08001fbc   Number         4  stm32g0xx_hal_rcc.o(.text.HAL_RCC_ClockConfig)
    __arm_cp.2_3                             0x08001fc0   Number         4  stm32g0xx_hal_rcc.o(.text.HAL_RCC_ClockConfig)
    __arm_cp.2_5                             0x08001fc4   Number         4  stm32g0xx_hal_rcc.o(.text.HAL_RCC_ClockConfig)
    [Anonymous Symbol]                       0x08001fc8   Section        0  stm32g0xx_hal_rcc.o(.text.HAL_RCC_GetHCLKFreq)
    __arm_cp.5_0                             0x08001fd0   Number         4  stm32g0xx_hal_rcc.o(.text.HAL_RCC_GetHCLKFreq)
    [Anonymous Symbol]                       0x08001fd4   Section        0  stm32g0xx_hal_rcc.o(.text.HAL_RCC_GetPCLK1Freq)
    __arm_cp.6_0                             0x08001ff4   Number         4  stm32g0xx_hal_rcc.o(.text.HAL_RCC_GetPCLK1Freq)
    [Anonymous Symbol]                       0x08001ff8   Section        0  stm32g0xx_hal_rcc.o(.text.HAL_RCC_GetSysClockFreq)
    __arm_cp.3_0                             0x08002074   Number         4  stm32g0xx_hal_rcc.o(.text.HAL_RCC_GetSysClockFreq)
    __arm_cp.3_1                             0x08002078   Number         4  stm32g0xx_hal_rcc.o(.text.HAL_RCC_GetSysClockFreq)
    __arm_cp.3_2                             0x0800207c   Number         4  stm32g0xx_hal_rcc.o(.text.HAL_RCC_GetSysClockFreq)
    [Anonymous Symbol]                       0x08002080   Section        0  stm32g0xx_hal_rcc.o(.text.HAL_RCC_OscConfig)
    __arm_cp.1_9                             0x08002474   Number         4  stm32g0xx_hal_rcc.o(.text.HAL_RCC_OscConfig)
    __arm_cp.1_1                             0x08002500   Number         4  stm32g0xx_hal_rcc.o(.text.HAL_RCC_OscConfig)
    __arm_cp.1_2                             0x08002504   Number         4  stm32g0xx_hal_rcc.o(.text.HAL_RCC_OscConfig)
    __arm_cp.1_3                             0x08002508   Number         4  stm32g0xx_hal_rcc.o(.text.HAL_RCC_OscConfig)
    __arm_cp.1_4                             0x0800250c   Number         4  stm32g0xx_hal_rcc.o(.text.HAL_RCC_OscConfig)
    __arm_cp.1_5                             0x08002510   Number         4  stm32g0xx_hal_rcc.o(.text.HAL_RCC_OscConfig)
    __arm_cp.1_6                             0x08002514   Number         4  stm32g0xx_hal_rcc.o(.text.HAL_RCC_OscConfig)
    __arm_cp.1_7                             0x08002518   Number         4  stm32g0xx_hal_rcc.o(.text.HAL_RCC_OscConfig)
    [Anonymous Symbol]                       0x0800251c   Section        0  stm32g0xx_hal.o(.text.HAL_ResumeTick)
    [Anonymous Symbol]                       0x08002528   Section        0  stm32g0xx_hal.o(.text.HAL_SYSCFG_StrobeDBattpinsConfig)
    __arm_cp.34_0                            0x08002538   Number         4  stm32g0xx_hal.o(.text.HAL_SYSCFG_StrobeDBattpinsConfig)
    [Anonymous Symbol]                       0x0800253c   Section        0  stm32g0xx_hal_cortex.o(.text.HAL_SYSTICK_Config)
    [Anonymous Symbol]                       0x08002544   Section        0  stm32g0xx_hal.o(.text.HAL_SuspendTick)
    __arm_cp.11_0                            0x08002550   Number         4  stm32g0xx_hal.o(.text.HAL_SuspendTick)
    [Anonymous Symbol]                       0x08002554   Section        0  stm32g0xx_hal_uart_ex.o(.text.HAL_UARTEx_DisableFifoMode)
    [Anonymous Symbol]                       0x0800258a   Section        0  stm32g0xx_hal_uart.o(.text.HAL_UARTEx_RxEventCallback)
    [Anonymous Symbol]                       0x0800258c   Section        0  stm32g0xx_hal_uart_ex.o(.text.HAL_UARTEx_RxFifoFullCallback)
    [Anonymous Symbol]                       0x0800258e   Section        0  stm32g0xx_hal_uart_ex.o(.text.HAL_UARTEx_SetRxFifoThreshold)
    [Anonymous Symbol]                       0x080025d4   Section        0  stm32g0xx_hal_uart_ex.o(.text.HAL_UARTEx_SetTxFifoThreshold)
    [Anonymous Symbol]                       0x0800261a   Section        0  stm32g0xx_hal_uart_ex.o(.text.HAL_UARTEx_TxFifoEmptyCallback)
    [Anonymous Symbol]                       0x0800261c   Section        0  stm32g0xx_hal_uart_ex.o(.text.HAL_UARTEx_WakeupCallback)
    [Anonymous Symbol]                       0x0800261e   Section        0  stm32g0xx_hal_uart.o(.text.HAL_UART_DeInit)
    [Anonymous Symbol]                       0x08002658   Section        0  stm32g0xx_hal_uart.o(.text.HAL_UART_ErrorCallback)
    [Anonymous Symbol]                       0x0800265c   Section        0  stm32g0xx_hal_uart.o(.text.HAL_UART_IRQHandler)
    __arm_cp.44_0                            0x080028e0   Number         4  stm32g0xx_hal_uart.o(.text.HAL_UART_IRQHandler)
    __arm_cp.44_1                            0x080028e4   Number         4  stm32g0xx_hal_uart.o(.text.HAL_UART_IRQHandler)
    __arm_cp.44_2                            0x080028e8   Number         4  stm32g0xx_hal_uart.o(.text.HAL_UART_IRQHandler)
    __arm_cp.44_3                            0x080028ec   Number         4  stm32g0xx_hal_uart.o(.text.HAL_UART_IRQHandler)
    [Anonymous Symbol]                       0x080028f0   Section        0  stm32g0xx_hal_uart.o(.text.HAL_UART_Init)
    [Anonymous Symbol]                       0x0800295c   Section        0  usart.o(.text.HAL_UART_MspDeInit)
    __arm_cp.2_1                             0x08002988   Number         4  usart.o(.text.HAL_UART_MspDeInit)
    [Anonymous Symbol]                       0x0800298c   Section        0  usart.o(.text.HAL_UART_MspInit)
    __arm_cp.1_1                             0x080029fc   Number         4  usart.o(.text.HAL_UART_MspInit)
    [Anonymous Symbol]                       0x08002a00   Section        0  stm32g0xx_hal_uart.o(.text.HAL_UART_Receive_IT)
    [Anonymous Symbol]                       0x08002a4c   Section        0  debug.o(.text.HAL_UART_RxCpltCallback)
    __arm_cp.1_0                             0x08002a90   Number         4  debug.o(.text.HAL_UART_RxCpltCallback)
    __arm_cp.1_1                             0x08002a94   Number         4  debug.o(.text.HAL_UART_RxCpltCallback)
    __arm_cp.1_2                             0x08002a98   Number         4  debug.o(.text.HAL_UART_RxCpltCallback)
    __arm_cp.1_3                             0x08002a9c   Number         4  debug.o(.text.HAL_UART_RxCpltCallback)
    [Anonymous Symbol]                       0x08002aa0   Section        0  stm32g0xx_hal_uart.o(.text.HAL_UART_Transmit)
    __arm_cp.10_0                            0x08002b9c   Number         4  stm32g0xx_hal_uart.o(.text.HAL_UART_Transmit)
    [Anonymous Symbol]                       0x08002ba0   Section        0  stm32g0xx_hal_uart.o(.text.HAL_UART_TxCpltCallback)
    [Anonymous Symbol]                       0x08002ba2   Section        0  stm32g0xx_it.o(.text.HardFault_Handler)
    LL_RCC_GetAPB1Prescaler                  0x08002ba5   Thumb Code    12  stm32g0xx_hal_rcc.o(.text.LL_RCC_GetAPB1Prescaler)
    [Anonymous Symbol]                       0x08002ba4   Section        0  stm32g0xx_hal_rcc.o(.text.LL_RCC_GetAPB1Prescaler)
    __arm_cp.7_0                             0x08002bb0   Number         4  stm32g0xx_hal_rcc.o(.text.LL_RCC_GetAPB1Prescaler)
    LowPowerPreProc                          0x08002bb5   Thumb Code   252  powermanagement.o(.text.LowPowerPreProc)
    [Anonymous Symbol]                       0x08002bb4   Section        0  powermanagement.o(.text.LowPowerPreProc)
    __arm_cp.1_0                             0x08002cb0   Number         4  powermanagement.o(.text.LowPowerPreProc)
    __arm_cp.1_1                             0x08002cb4   Number         4  powermanagement.o(.text.LowPowerPreProc)
    __arm_cp.1_2                             0x08002cb8   Number         4  powermanagement.o(.text.LowPowerPreProc)
    __arm_cp.1_3                             0x08002cbc   Number         4  powermanagement.o(.text.LowPowerPreProc)
    __arm_cp.1_7                             0x08002cc4   Number         4  powermanagement.o(.text.LowPowerPreProc)
    [Anonymous Symbol]                       0x08002cc8   Section        0  gpio.o(.text.MX_GPIO_Init)
    __arm_cp.0_0                             0x08002da4   Number         4  gpio.o(.text.MX_GPIO_Init)
    __arm_cp.0_1                             0x08002da8   Number         4  gpio.o(.text.MX_GPIO_Init)
    __arm_cp.0_2                             0x08002dac   Number         4  gpio.o(.text.MX_GPIO_Init)
    __arm_cp.0_3                             0x08002db0   Number         4  gpio.o(.text.MX_GPIO_Init)
    __arm_cp.0_4                             0x08002db4   Number         4  gpio.o(.text.MX_GPIO_Init)
    [Anonymous Symbol]                       0x08002db8   Section        0  iwdg.o(.text.MX_IWDG_Init)
    __arm_cp.0_0                             0x08002dd8   Number         4  iwdg.o(.text.MX_IWDG_Init)
    __arm_cp.0_1                             0x08002ddc   Number         4  iwdg.o(.text.MX_IWDG_Init)
    __arm_cp.0_2                             0x08002de0   Number         4  iwdg.o(.text.MX_IWDG_Init)
    [Anonymous Symbol]                       0x08002de4   Section        0  usart.o(.text.MX_USART1_UART_Init)
    __arm_cp.0_0                             0x08002e44   Number         4  usart.o(.text.MX_USART1_UART_Init)
    __arm_cp.0_1                             0x08002e48   Number         4  usart.o(.text.MX_USART1_UART_Init)
    [Anonymous Symbol]                       0x08002e4c   Section        0  stm32g0xx_it.o(.text.NMI_Handler)
    OnCfgDebug                               0x08002e51   Thumb Code   212  debug.o(.text.OnCfgDebug)
    [Anonymous Symbol]                       0x08002e50   Section        0  debug.o(.text.OnCfgDebug)
    __arm_cp.4_0                             0x08002f24   Number         4  debug.o(.text.OnCfgDebug)
    __arm_cp.4_1                             0x08002f28   Number         4  debug.o(.text.OnCfgDebug)
    __arm_cp.4_5                             0x08002f70   Number         4  debug.o(.text.OnCfgDebug)
    __arm_cp.4_7                             0x08002f78   Number         4  debug.o(.text.OnCfgDebug)
    [Anonymous Symbol]                       0x08002f7c   Section        0  stm32g0xx_it.o(.text.PendSV_Handler)
    [Anonymous Symbol]                       0x08002f7e   Section        0  stm32g0xx_it.o(.text.SVC_Handler)
    SysTick_Config                           0x08002f81   Thumb Code    36  stm32g0xx_hal_cortex.o(.text.SysTick_Config)
    [Anonymous Symbol]                       0x08002f80   Section        0  stm32g0xx_hal_cortex.o(.text.SysTick_Config)
    __arm_cp.9_0                             0x08002fa4   Number         4  stm32g0xx_hal_cortex.o(.text.SysTick_Config)
    [Anonymous Symbol]                       0x08002fa8   Section        0  stm32g0xx_it.o(.text.SysTick_Handler)
    [Anonymous Symbol]                       0x08002fb0   Section        0  main.o(.text.SystemClock_Config)
    [Anonymous Symbol]                       0x08003034   Section        0  powermanagement.o(.text.SystemEnterLowerPower)
    __arm_cp.0_0                             0x0800320c   Number         4  powermanagement.o(.text.SystemEnterLowerPower)
    __arm_cp.0_1                             0x08003210   Number         4  powermanagement.o(.text.SystemEnterLowerPower)
    __arm_cp.0_4                             0x08003230   Number         4  powermanagement.o(.text.SystemEnterLowerPower)
    __arm_cp.0_9                             0x08003298   Number         4  powermanagement.o(.text.SystemEnterLowerPower)
    [Anonymous Symbol]                       0x080032b4   Section        0  system_stm32g0xx.o(.text.SystemInit)
    __arm_cp.0_0                             0x080032c0   Number         4  system_stm32g0xx.o(.text.SystemInit)
    UARTEx_SetNbDataToProcess                0x080032c5   Thumb Code    64  stm32g0xx_hal_uart_ex.o(.text.UARTEx_SetNbDataToProcess)
    [Anonymous Symbol]                       0x080032c4   Section        0  stm32g0xx_hal_uart_ex.o(.text.UARTEx_SetNbDataToProcess)
    __arm_cp.10_0                            0x08003304   Number         4  stm32g0xx_hal_uart_ex.o(.text.UARTEx_SetNbDataToProcess)
    __arm_cp.10_1                            0x08003308   Number         4  stm32g0xx_hal_uart_ex.o(.text.UARTEx_SetNbDataToProcess)
    [Anonymous Symbol]                       0x0800330c   Section        0  stm32g0xx_hal_uart.o(.text.UART_AdvFeatureConfig)
    [Anonymous Symbol]                       0x080033e0   Section        0  stm32g0xx_hal_uart.o(.text.UART_CheckIdleState)
    __arm_cp.4_0                             0x0800344c   Number         4  stm32g0xx_hal_uart.o(.text.UART_CheckIdleState)
    UART_DMAAbortOnError                     0x08003451   Thumb Code    22  stm32g0xx_hal_uart.o(.text.UART_DMAAbortOnError)
    [Anonymous Symbol]                       0x08003450   Section        0  stm32g0xx_hal_uart.o(.text.UART_DMAAbortOnError)
    UART_EndRxTransfer                       0x08003469   Thumb Code    48  stm32g0xx_hal_uart.o(.text.UART_EndRxTransfer)
    [Anonymous Symbol]                       0x08003468   Section        0  stm32g0xx_hal_uart.o(.text.UART_EndRxTransfer)
    UART_EndTransmit_IT                      0x08003499   Thumb Code    28  stm32g0xx_hal_uart.o(.text.UART_EndTransmit_IT)
    [Anonymous Symbol]                       0x08003498   Section        0  stm32g0xx_hal_uart.o(.text.UART_EndTransmit_IT)
    UART_RxISR_16BIT                         0x080034b5   Thumb Code   120  stm32g0xx_hal_uart.o(.text.UART_RxISR_16BIT)
    [Anonymous Symbol]                       0x080034b4   Section        0  stm32g0xx_hal_uart.o(.text.UART_RxISR_16BIT)
    UART_RxISR_16BIT_FIFOEN                  0x0800352d   Thumb Code   312  stm32g0xx_hal_uart.o(.text.UART_RxISR_16BIT_FIFOEN)
    [Anonymous Symbol]                       0x0800352c   Section        0  stm32g0xx_hal_uart.o(.text.UART_RxISR_16BIT_FIFOEN)
    __arm_cp.64_1                            0x08003664   Number         4  stm32g0xx_hal_uart.o(.text.UART_RxISR_16BIT_FIFOEN)
    UART_RxISR_8BIT                          0x08003669   Thumb Code   124  stm32g0xx_hal_uart.o(.text.UART_RxISR_8BIT)
    [Anonymous Symbol]                       0x08003668   Section        0  stm32g0xx_hal_uart.o(.text.UART_RxISR_8BIT)
    UART_RxISR_8BIT_FIFOEN                   0x080036e5   Thumb Code   316  stm32g0xx_hal_uart.o(.text.UART_RxISR_8BIT_FIFOEN)
    [Anonymous Symbol]                       0x080036e4   Section        0  stm32g0xx_hal_uart.o(.text.UART_RxISR_8BIT_FIFOEN)
    __arm_cp.65_0                            0x08003820   Number         4  stm32g0xx_hal_uart.o(.text.UART_RxISR_8BIT_FIFOEN)
    [Anonymous Symbol]                       0x08003824   Section        0  stm32g0xx_hal_uart.o(.text.UART_SetConfig)
    __arm_cp.2_0                             0x08003ac0   Number         4  stm32g0xx_hal_uart.o(.text.UART_SetConfig)
    __arm_cp.2_1                             0x08003ac4   Number         4  stm32g0xx_hal_uart.o(.text.UART_SetConfig)
    __arm_cp.2_2                             0x08003ac8   Number         4  stm32g0xx_hal_uart.o(.text.UART_SetConfig)
    __arm_cp.2_3                             0x08003acc   Number         4  stm32g0xx_hal_uart.o(.text.UART_SetConfig)
    __arm_cp.2_4                             0x08003ad0   Number         4  stm32g0xx_hal_uart.o(.text.UART_SetConfig)
    __arm_cp.2_5                             0x08003ad4   Number         4  stm32g0xx_hal_uart.o(.text.UART_SetConfig)
    __arm_cp.2_6                             0x08003ad8   Number         4  stm32g0xx_hal_uart.o(.text.UART_SetConfig)
    __arm_cp.2_7                             0x08003adc   Number         4  stm32g0xx_hal_uart.o(.text.UART_SetConfig)
    __arm_cp.2_8                             0x08003ae0   Number         4  stm32g0xx_hal_uart.o(.text.UART_SetConfig)
    __arm_cp.2_9                             0x08003ae4   Number         4  stm32g0xx_hal_uart.o(.text.UART_SetConfig)
    __arm_cp.2_10                            0x08003ae8   Number         4  stm32g0xx_hal_uart.o(.text.UART_SetConfig)
    __arm_cp.2_11                            0x08003aec   Number         4  stm32g0xx_hal_uart.o(.text.UART_SetConfig)
    __arm_cp.2_12                            0x08003af0   Number         4  stm32g0xx_hal_uart.o(.text.UART_SetConfig)
    __arm_cp.2_13                            0x08003af4   Number         4  stm32g0xx_hal_uart.o(.text.UART_SetConfig)
    __arm_cp.2_15                            0x08003b08   Number         4  stm32g0xx_hal_uart.o(.text.UART_SetConfig)
    __arm_cp.2_16                            0x08003b0c   Number         4  stm32g0xx_hal_uart.o(.text.UART_SetConfig)
    __arm_cp.2_17                            0x08003b10   Number         4  stm32g0xx_hal_uart.o(.text.UART_SetConfig)
    __arm_cp.2_18                            0x08003b14   Number         4  stm32g0xx_hal_uart.o(.text.UART_SetConfig)
    __arm_cp.2_19                            0x08003b18   Number         4  stm32g0xx_hal_uart.o(.text.UART_SetConfig)
    __arm_cp.2_20                            0x08003b1c   Number         4  stm32g0xx_hal_uart.o(.text.UART_SetConfig)
    [Anonymous Symbol]                       0x08003b20   Section        0  stm32g0xx_hal_uart.o(.text.UART_Start_Receive_IT)
    __arm_cp.19_0                            0x08003bf0   Number         4  stm32g0xx_hal_uart.o(.text.UART_Start_Receive_IT)
    __arm_cp.19_1                            0x08003bf4   Number         4  stm32g0xx_hal_uart.o(.text.UART_Start_Receive_IT)
    __arm_cp.19_2                            0x08003bf8   Number         4  stm32g0xx_hal_uart.o(.text.UART_Start_Receive_IT)
    __arm_cp.19_3                            0x08003bfc   Number         4  stm32g0xx_hal_uart.o(.text.UART_Start_Receive_IT)
    __arm_cp.19_4                            0x08003c00   Number         4  stm32g0xx_hal_uart.o(.text.UART_Start_Receive_IT)
    [Anonymous Symbol]                       0x08003c04   Section        0  stm32g0xx_hal_uart.o(.text.UART_WaitOnFlagUntilTimeout)
    [Anonymous Symbol]                       0x08003cb8   Section        0  stm32g0xx_it.o(.text.USART1_IRQHandler)
    __NVIC_DisableIRQ                        0x08003cc5   Thumb Code    28  stm32g0xx_hal_cortex.o(.text.__NVIC_DisableIRQ)
    [Anonymous Symbol]                       0x08003cc4   Section        0  stm32g0xx_hal_cortex.o(.text.__NVIC_DisableIRQ)
    __arm_cp.5_0                             0x08003ce0   Number         4  stm32g0xx_hal_cortex.o(.text.__NVIC_DisableIRQ)
    __NVIC_EnableIRQ                         0x08003ce5   Thumb Code    20  stm32g0xx_hal_cortex.o(.text.__NVIC_EnableIRQ)
    [Anonymous Symbol]                       0x08003ce4   Section        0  stm32g0xx_hal_cortex.o(.text.__NVIC_EnableIRQ)
    __arm_cp.3_0                             0x08003cf8   Number         4  stm32g0xx_hal_cortex.o(.text.__NVIC_EnableIRQ)
    __NVIC_SetPriority                       0x08003cfd   Thumb Code    56  stm32g0xx_hal_cortex.o(.text.__NVIC_SetPriority)
    [Anonymous Symbol]                       0x08003cfc   Section        0  stm32g0xx_hal_cortex.o(.text.__NVIC_SetPriority)
    __arm_cp.1_0                             0x08003d34   Number         4  stm32g0xx_hal_cortex.o(.text.__NVIC_SetPriority)
    __arm_cp.1_1                             0x08003d38   Number         4  stm32g0xx_hal_cortex.o(.text.__NVIC_SetPriority)
    [Anonymous Symbol]                       0x08003d3c   Section        0  debug.o(.text.fputc)
    [Anonymous Symbol]                       0x08003d54   Section        0  main.o(.text.main)
    __arm_cp.0_0                             0x08003e0c   Number         4  main.o(.text.main)
    __arm_cp.0_1                             0x08003e10   Number         4  main.o(.text.main)
    __arm_cp.0_2                             0x08003e14   Number         4  main.o(.text.main)
    __arm_cp.0_3                             0x08003e18   Number         4  main.o(.text.main)
    __arm_cp.0_4                             0x08003e1c   Number         4  main.o(.text.main)
    __arm_cp.0_5                             0x08003e20   Number         4  main.o(.text.main)
    __arm_cp.0_6                             0x08003e24   Number         4  main.o(.text.main)
    __arm_cp.0_7                             0x08003e28   Number         4  main.o(.text.main)
    __arm_cp.0_8                             0x08003e2c   Number         4  main.o(.text.main)
    __arm_cp.0_11                            0x08003e4c   Number         4  main.o(.text.main)
    __arm_cp.0_12                            0x08003e50   Number         4  main.o(.text.main)
    [Anonymous Symbol]                       0x08003e54   Section        0  debug.o(.text.os_time_get)
    i.__0printf$6                            0x08003e5c   Section        0  printf6.o(i.__0printf$6)
    i.__ARM_clz                              0x08003e7c   Section        0  depilogue.o(i.__ARM_clz)
    i.__scatterload_copy                     0x08003eaa   Section       14  handlers.o(i.__scatterload_copy)
    i.__scatterload_null                     0x08003eb8   Section        2  handlers.o(i.__scatterload_null)
    i.__scatterload_zeroinit                 0x08003eba   Section       14  handlers.o(i.__scatterload_zeroinit)
    i._is_digit                              0x08003ec8   Section        0  scanf_fp.o(i._is_digit)
    _printf_core                             0x08003ed9   Thumb Code   768  printf6.o(i._printf_core)
    i._printf_core                           0x08003ed8   Section        0  printf6.o(i._printf_core)
    _printf_post_padding                     0x080041dd   Thumb Code    32  printf6.o(i._printf_post_padding)
    i._printf_post_padding                   0x080041dc   Section        0  printf6.o(i._printf_post_padding)
    _printf_pre_padding                      0x080041fd   Thumb Code    44  printf6.o(i._printf_pre_padding)
    i._printf_pre_padding                    0x080041fc   Section        0  printf6.o(i._printf_pre_padding)
    i.puts                                   0x08004228   Section        0  puts.o(i.puts)
    .constdata                               0x08004248   Section       64  ctype_c.o(.constdata)
    [Anonymous Symbol]                       0x08004300   Section        0  stm32g0xx_hal_uart_ex.o(.rodata.cst8)
    [Anonymous Symbol]                       0x08004310   Section        0  main.o(.rodata.str1.1)
    [Anonymous Symbol]                       0x0800431e   Section        0  powermanagement.o(.rodata.str1.1)
    .data                                    0x20000000   Section        4  stdout.o(.data)
    count                                    0x20000420   Data           4  debug.o(.bss.count)
    [Anonymous Symbol]                       0x20000420   Section        0  debug.o(.bss.count)
    STACK                                    0x200004d0   Section     1024  startup_stm32g0b1xx.o(STACK)

    Global Symbols

    Symbol Name                              Value     Ov Type        Size  Object(Section)

    BuildAttributes$$THM_ISAv3M$S$PE$A:L22$X:L11$S22$IEEE1$IW$~IW$USESV6$~STKCKD$USESV7$~SHL$OTIME$ROPI$EBA8$MICROLIB$REQ8$PRES8$EABIv2 0x00000000   Number         0  anon$$obj.o ABSOLUTE
    _printf_a                                0x00000000   Number         0  printfstubs.o ABSOLUTE
    _printf_c                                0x00000000   Number         0  printfstubs.o ABSOLUTE
    _printf_charcount                        0x00000000   Number         0  printfstubs.o ABSOLUTE
    _printf_d                                0x00000000   Number         0  printfstubs.o ABSOLUTE
    _printf_e                                0x00000000   Number         0  printfstubs.o ABSOLUTE
    _printf_f                                0x00000000   Number         0  printfstubs.o ABSOLUTE
    _printf_flags                            0x00000000   Number         0  printfstubs.o ABSOLUTE
    _printf_fp_dec                           0x00000000   Number         0  printfstubs.o ABSOLUTE
    _printf_fp_hex                           0x00000000   Number         0  printfstubs.o ABSOLUTE
    _printf_g                                0x00000000   Number         0  printfstubs.o ABSOLUTE
    _printf_i                                0x00000000   Number         0  printfstubs.o ABSOLUTE
    _printf_int_dec                          0x00000000   Number         0  printfstubs.o ABSOLUTE
    _printf_l                                0x00000000   Number         0  printfstubs.o ABSOLUTE
    _printf_lc                               0x00000000   Number         0  printfstubs.o ABSOLUTE
    _printf_ll                               0x00000000   Number         0  printfstubs.o ABSOLUTE
    _printf_lld                              0x00000000   Number         0  printfstubs.o ABSOLUTE
    _printf_lli                              0x00000000   Number         0  printfstubs.o ABSOLUTE
    _printf_llo                              0x00000000   Number         0  printfstubs.o ABSOLUTE
    _printf_llu                              0x00000000   Number         0  printfstubs.o ABSOLUTE
    _printf_llx                              0x00000000   Number         0  printfstubs.o ABSOLUTE
    _printf_longlong_dec                     0x00000000   Number         0  printfstubs.o ABSOLUTE
    _printf_longlong_hex                     0x00000000   Number         0  printfstubs.o ABSOLUTE
    _printf_longlong_oct                     0x00000000   Number         0  printfstubs.o ABSOLUTE
    _printf_ls                               0x00000000   Number         0  printfstubs.o ABSOLUTE
    _printf_mbtowc                           0x00000000   Number         0  printfstubs.o ABSOLUTE
    _printf_n                                0x00000000   Number         0  printfstubs.o ABSOLUTE
    _printf_o                                0x00000000   Number         0  printfstubs.o ABSOLUTE
    _printf_p                                0x00000000   Number         0  printfstubs.o ABSOLUTE
    _printf_percent                          0x00000000   Number         0  printfstubs.o ABSOLUTE
    _printf_pre_padding                      0x00000000   Number         0  printfstubs.o ABSOLUTE
    _printf_return_value                     0x00000000   Number         0  printfstubs.o ABSOLUTE
    _printf_s                                0x00000000   Number         0  printfstubs.o ABSOLUTE
    _printf_sizespec                         0x00000000   Number         0  printfstubs.o ABSOLUTE
    _printf_str                              0x00000000   Number         0  printfstubs.o ABSOLUTE
    _printf_truncate_signed                  0x00000000   Number         0  printfstubs.o ABSOLUTE
    _printf_truncate_unsigned                0x00000000   Number         0  printfstubs.o ABSOLUTE
    _printf_u                                0x00000000   Number         0  printfstubs.o ABSOLUTE
    _printf_wc                               0x00000000   Number         0  printfstubs.o ABSOLUTE
    _printf_wctomb                           0x00000000   Number         0  printfstubs.o ABSOLUTE
    _printf_widthprec                        0x00000000   Number         0  printfstubs.o ABSOLUTE
    _printf_x                                0x00000000   Number         0  printfstubs.o ABSOLUTE
    _scanf_mbtowc                            0x00000000   Number         0  scanfstubs.o ABSOLUTE
    _scanf_wctomb                            0x00000000   Number         0  scanfstubs.o ABSOLUTE
    _scanf_wstring                           0x00000000   Number         0  scanfstubs.o ABSOLUTE
    __cpp_initialize__aeabi_                  - Undefined Weak Reference
    __cxa_finalize                            - Undefined Weak Reference
    __decompress                              - Undefined Weak Reference
    _clock_init                               - Undefined Weak Reference
    _microlib_exit                            - Undefined Weak Reference
    __Vectors_Size                           0x000000bc   Number         0  startup_stm32g0b1xx.o ABSOLUTE
    __Vectors                                0x08000000   Data           4  startup_stm32g0b1xx.o(RESET)
    __Vectors_End                            0x080000bc   Data           0  startup_stm32g0b1xx.o(RESET)
    __main                                   0x080000bd   Thumb Code     0  entry.o(.ARM.Collect$$$$00000000)
    _main_stk                                0x080000bd   Thumb Code     0  entry2.o(.ARM.Collect$$$$00000001)
    _main_scatterload                        0x080000c1   Thumb Code     0  entry5.o(.ARM.Collect$$$$00000004)
    __main_after_scatterload                 0x080000c5   Thumb Code     0  entry5.o(.ARM.Collect$$$$00000004)
    _main_clock                              0x080000c5   Thumb Code     0  entry7b.o(.ARM.Collect$$$$00000008)
    _main_cpp_init                           0x080000c5   Thumb Code     0  entry8b.o(.ARM.Collect$$$$0000000A)
    _main_init                               0x080000c5   Thumb Code     0  entry9a.o(.ARM.Collect$$$$0000000B)
    __rt_final_cpp                           0x080000cd   Thumb Code     0  entry10a.o(.ARM.Collect$$$$0000000D)
    __rt_final_exit                          0x080000cd   Thumb Code     0  entry11a.o(.ARM.Collect$$$$0000000F)
    Reset_Handler                            0x080000d1   Thumb Code     8  startup_stm32g0b1xx.o(.text)
    ADC1_COMP_IRQHandler                     0x080000e3   Thumb Code     0  startup_stm32g0b1xx.o(.text)
    CEC_IRQHandler                           0x080000e3   Thumb Code     0  startup_stm32g0b1xx.o(.text)
    DMA1_Ch4_7_DMA2_Ch1_5_DMAMUX1_OVR_IRQHandler 0x080000e3   Thumb Code     0  startup_stm32g0b1xx.o(.text)
    DMA1_Channel1_IRQHandler                 0x080000e3   Thumb Code     0  startup_stm32g0b1xx.o(.text)
    DMA1_Channel2_3_IRQHandler               0x080000e3   Thumb Code     0  startup_stm32g0b1xx.o(.text)
    EXTI0_1_IRQHandler                       0x080000e3   Thumb Code     0  startup_stm32g0b1xx.o(.text)
    FLASH_IRQHandler                         0x080000e3   Thumb Code     0  startup_stm32g0b1xx.o(.text)
    I2C1_IRQHandler                          0x080000e3   Thumb Code     0  startup_stm32g0b1xx.o(.text)
    I2C2_3_IRQHandler                        0x080000e3   Thumb Code     0  startup_stm32g0b1xx.o(.text)
    PVD_VDDIO2_IRQHandler                    0x080000e3   Thumb Code     0  startup_stm32g0b1xx.o(.text)
    RCC_CRS_IRQHandler                       0x080000e3   Thumb Code     0  startup_stm32g0b1xx.o(.text)
    RTC_TAMP_IRQHandler                      0x080000e3   Thumb Code     0  startup_stm32g0b1xx.o(.text)
    SPI1_IRQHandler                          0x080000e3   Thumb Code     0  startup_stm32g0b1xx.o(.text)
    SPI2_3_IRQHandler                        0x080000e3   Thumb Code     0  startup_stm32g0b1xx.o(.text)
    TIM14_IRQHandler                         0x080000e3   Thumb Code     0  startup_stm32g0b1xx.o(.text)
    TIM15_IRQHandler                         0x080000e3   Thumb Code     0  startup_stm32g0b1xx.o(.text)
    TIM16_FDCAN_IT0_IRQHandler               0x080000e3   Thumb Code     0  startup_stm32g0b1xx.o(.text)
    TIM17_FDCAN_IT1_IRQHandler               0x080000e3   Thumb Code     0  startup_stm32g0b1xx.o(.text)
    TIM1_BRK_UP_TRG_COM_IRQHandler           0x080000e3   Thumb Code     0  startup_stm32g0b1xx.o(.text)
    TIM1_CC_IRQHandler                       0x080000e3   Thumb Code     0  startup_stm32g0b1xx.o(.text)
    TIM2_IRQHandler                          0x080000e3   Thumb Code     0  startup_stm32g0b1xx.o(.text)
    TIM3_TIM4_IRQHandler                     0x080000e3   Thumb Code     0  startup_stm32g0b1xx.o(.text)
    TIM6_DAC_LPTIM1_IRQHandler               0x080000e3   Thumb Code     0  startup_stm32g0b1xx.o(.text)
    TIM7_LPTIM2_IRQHandler                   0x080000e3   Thumb Code     0  startup_stm32g0b1xx.o(.text)
    USART2_LPUART2_IRQHandler                0x080000e3   Thumb Code     0  startup_stm32g0b1xx.o(.text)
    USART3_4_5_6_LPUART1_IRQHandler          0x080000e3   Thumb Code     0  startup_stm32g0b1xx.o(.text)
    USB_UCPD1_2_IRQHandler                   0x080000e3   Thumb Code     0  startup_stm32g0b1xx.o(.text)
    WWDG_IRQHandler                          0x080000e3   Thumb Code     0  startup_stm32g0b1xx.o(.text)
    __aeabi_uldivmod                         0x080000ed   Thumb Code    96  uldiv.o(.text)
    __aeabi_memset                           0x0800014d   Thumb Code    14  memseta.o(.text)
    __aeabi_memset4                          0x0800014d   Thumb Code     0  memseta.o(.text)
    __aeabi_memset8                          0x0800014d   Thumb Code     0  memseta.o(.text)
    __aeabi_memclr                           0x0800015b   Thumb Code     4  memseta.o(.text)
    __aeabi_memclr4                          0x0800015b   Thumb Code     0  memseta.o(.text)
    __aeabi_memclr8                          0x0800015b   Thumb Code     0  memseta.o(.text)
    _memset$wrapper                          0x0800015f   Thumb Code    18  memseta.o(.text)
    strchr                                   0x08000171   Thumb Code    20  strchr.o(.text)
    strlen                                   0x08000185   Thumb Code    14  strlen.o(.text)
    sscanf                                   0x08000195   Thumb Code    50  sscanf.o(.text)
    _scanf_int                               0x080001d1   Thumb Code   330  _scanf_int.o(.text)
    __aeabi_uidiv                            0x0800031b   Thumb Code     0  uidiv_div0.o(.text)
    __aeabi_uidivmod                         0x0800031b   Thumb Code    62  uidiv_div0.o(.text)
    __aeabi_llsl                             0x08000359   Thumb Code    32  llshl.o(.text)
    _ll_shift_l                              0x08000359   Thumb Code     0  llshl.o(.text)
    __aeabi_llsr                             0x08000379   Thumb Code    34  llushr.o(.text)
    _ll_ushift_r                             0x08000379   Thumb Code     0  llushr.o(.text)
    _chval                                   0x0800039b   Thumb Code    30  _chval.o(.text)
    _scanf_longlong                          0x080003b9   Thumb Code   330  _scanf_longlong.o(.text)
    _scanf_string                            0x08000503   Thumb Code   232  _scanf_str.o(.text)
    _scanf_real                              0x0800070b   Thumb Code     0  scanf_fp.o(.text)
    _scanf_really_real                       0x0800070b   Thumb Code   584  scanf_fp.o(.text)
    __vfscanf_char                           0x0800096d   Thumb Code    24  scanf_char.o(.text)
    _sgetc                                   0x0800098d   Thumb Code    32  _sgetc.o(.text)
    _sbackspace                              0x080009ad   Thumb Code    36  _sgetc.o(.text)
    __I$use$fp                               0x080009d1   Thumb Code     0  iusefp.o(.text)
    __aeabi_dmul                             0x080009d1   Thumb Code   202  dmul.o(.text)
    __aeabi_ddiv                             0x08000aa1   Thumb Code   234  ddiv.o(.text)
    __scatterload                            0x08000b91   Thumb Code    28  init.o(.text)
    __scatterload_rt2                        0x08000b91   Thumb Code     0  init.o(.text)
    __aeabi_lmul                             0x08000bb5   Thumb Code    48  llmul.o(.text)
    _ll_mul                                  0x08000bb5   Thumb Code     0  llmul.o(.text)
    isspace                                  0x08000be5   Thumb Code    14  isspace_c.o(.text)
    __vfscanf                                0x08000bf5   Thumb Code   812  _scanf.o(.text)
    _double_round                            0x08000f2d   Thumb Code    26  depilogue.o(.text)
    _double_epilogue                         0x08000f47   Thumb Code   164  depilogue.o(.text)
    __aeabi_ul2d                             0x08000fed   Thumb Code    22  dfltul.o(.text)
    __aeabi_d2f                              0x08001009   Thumb Code    56  d2f.o(.text)
    __ctype_lookup                           0x08001041   Thumb Code    32  ctype_c.o(.text)
    _float_round                             0x08001065   Thumb Code    16  fepilogue.o(.text)
    _float_epilogue                          0x08001075   Thumb Code   114  fepilogue.o(.text)
    EXTI2_3_IRQHandler                       0x08001289   Thumb Code    10  stm32g0xx_it.o(.text.EXTI2_3_IRQHandler)
    EXTI4_15_IRQHandler                      0x08001293   Thumb Code    18  stm32g0xx_it.o(.text.EXTI4_15_IRQHandler)
    Error_Handler                            0x080012c5   Thumb Code     8  main.o(.text.Error_Handler)
    HAL_DMA_Abort                            0x08001455   Thumb Code   104  stm32g0xx_hal_dma.o(.text.HAL_DMA_Abort)
    HAL_DMA_Abort_IT                         0x080014bd   Thumb Code   108  stm32g0xx_hal_dma.o(.text.HAL_DMA_Abort_IT)
    HAL_Delay                                0x0800152d   Thumb Code    32  stm32g0xx_hal.o(.text.HAL_Delay)
    HAL_GPIO_DeInit                          0x08001551   Thumb Code   240  stm32g0xx_hal_gpio.o(.text.HAL_GPIO_DeInit)
    HAL_GPIO_EXTI_Falling_Callback           0x08001641   Thumb Code   192  main.o(.text.HAL_GPIO_EXTI_Falling_Callback)
    HAL_GPIO_EXTI_IRQHandler                 0x08001731   Thumb Code    36  stm32g0xx_hal_gpio.o(.text.HAL_GPIO_EXTI_IRQHandler)
    HAL_GPIO_EXTI_Rising_Callback            0x08001759   Thumb Code     2  stm32g0xx_hal_gpio.o(.text.HAL_GPIO_EXTI_Rising_Callback)
    HAL_GPIO_Init                            0x0800175d   Thumb Code   368  stm32g0xx_hal_gpio.o(.text.HAL_GPIO_Init)
    HAL_GPIO_TogglePin                       0x080018dd   Thumb Code    16  stm32g0xx_hal_gpio.o(.text.HAL_GPIO_TogglePin)
    HAL_GPIO_WritePin                        0x080018ed   Thumb Code    16  stm32g0xx_hal_gpio.o(.text.HAL_GPIO_WritePin)
    HAL_GetTick                              0x080018fd   Thumb Code     8  stm32g0xx_hal.o(.text.HAL_GetTick)
    HAL_IWDG_Init                            0x08001905   Thumb Code    80  stm32g0xx_hal_iwdg.o(.text.HAL_IWDG_Init)
    HAL_IWDG_Refresh                         0x0800195d   Thumb Code    12  stm32g0xx_hal_iwdg.o(.text.HAL_IWDG_Refresh)
    HAL_IncTick                              0x0800196d   Thumb Code    16  stm32g0xx_hal.o(.text.HAL_IncTick)
    HAL_Init                                 0x08001981   Thumb Code    40  stm32g0xx_hal.o(.text.HAL_Init)
    HAL_InitTick                             0x080019ad   Thumb Code    64  stm32g0xx_hal.o(.text.HAL_InitTick)
    HAL_MspInit                              0x080019f5   Thumb Code    52  stm32g0xx_hal_msp.o(.text.HAL_MspInit)
    HAL_NVIC_DisableIRQ                      0x08001a2d   Thumb Code     8  stm32g0xx_hal_cortex.o(.text.HAL_NVIC_DisableIRQ)
    HAL_NVIC_EnableIRQ                       0x08001a35   Thumb Code     8  stm32g0xx_hal_cortex.o(.text.HAL_NVIC_EnableIRQ)
    HAL_NVIC_SetPriority                     0x08001a3d   Thumb Code     8  stm32g0xx_hal_cortex.o(.text.HAL_NVIC_SetPriority)
    HAL_PWREx_ControlVoltageScaling          0x08001a45   Thumb Code    72  stm32g0xx_hal_pwr_ex.o(.text.HAL_PWREx_ControlVoltageScaling)
    HAL_PWREx_DisableLowPowerRunMode         0x08001a8d   Thumb Code    60  stm32g0xx_hal_pwr_ex.o(.text.HAL_PWREx_DisableLowPowerRunMode)
    HAL_PWREx_EnableLowPowerRunMode          0x08001ad1   Thumb Code    16  stm32g0xx_hal_pwr_ex.o(.text.HAL_PWREx_EnableLowPowerRunMode)
    HAL_PWREx_EnterSHUTDOWNMode              0x08001ae1   Thumb Code    28  stm32g0xx_hal_pwr_ex.o(.text.HAL_PWREx_EnterSHUTDOWNMode)
    HAL_PWR_EnterSLEEPMode                   0x08001afd   Thumb Code    68  stm32g0xx_hal_pwr.o(.text.HAL_PWR_EnterSLEEPMode)
    HAL_PWR_EnterSTANDBYMode                 0x08001b45   Thumb Code    28  stm32g0xx_hal_pwr.o(.text.HAL_PWR_EnterSTANDBYMode)
    HAL_PWR_EnterSTOPMode                    0x08001b61   Thumb Code    52  stm32g0xx_hal_pwr.o(.text.HAL_PWR_EnterSTOPMode)
    HAL_RCCEx_PeriphCLKConfig                0x08001b9d   Thumb Code   676  stm32g0xx_hal_rcc_ex.o(.text.HAL_RCCEx_PeriphCLKConfig)
    HAL_RCC_ClockConfig                      0x08001e59   Thumb Code   352  stm32g0xx_hal_rcc.o(.text.HAL_RCC_ClockConfig)
    HAL_RCC_GetHCLKFreq                      0x08001fc9   Thumb Code     8  stm32g0xx_hal_rcc.o(.text.HAL_RCC_GetHCLKFreq)
    HAL_RCC_GetPCLK1Freq                     0x08001fd5   Thumb Code    32  stm32g0xx_hal_rcc.o(.text.HAL_RCC_GetPCLK1Freq)
    HAL_RCC_GetSysClockFreq                  0x08001ff9   Thumb Code   124  stm32g0xx_hal_rcc.o(.text.HAL_RCC_GetSysClockFreq)
    HAL_RCC_OscConfig                        0x08002081   Thumb Code  1152  stm32g0xx_hal_rcc.o(.text.HAL_RCC_OscConfig)
    HAL_ResumeTick                           0x0800251d   Thumb Code    12  stm32g0xx_hal.o(.text.HAL_ResumeTick)
    HAL_SYSCFG_StrobeDBattpinsConfig         0x08002529   Thumb Code    16  stm32g0xx_hal.o(.text.HAL_SYSCFG_StrobeDBattpinsConfig)
    HAL_SYSTICK_Config                       0x0800253d   Thumb Code     8  stm32g0xx_hal_cortex.o(.text.HAL_SYSTICK_Config)
    HAL_SuspendTick                          0x08002545   Thumb Code    12  stm32g0xx_hal.o(.text.HAL_SuspendTick)
    HAL_UARTEx_DisableFifoMode               0x08002555   Thumb Code    54  stm32g0xx_hal_uart_ex.o(.text.HAL_UARTEx_DisableFifoMode)
    HAL_UARTEx_RxEventCallback               0x0800258b   Thumb Code     2  stm32g0xx_hal_uart.o(.text.HAL_UARTEx_RxEventCallback)
    HAL_UARTEx_RxFifoFullCallback            0x0800258d   Thumb Code     2  stm32g0xx_hal_uart_ex.o(.text.HAL_UARTEx_RxFifoFullCallback)
    HAL_UARTEx_SetRxFifoThreshold            0x0800258f   Thumb Code    70  stm32g0xx_hal_uart_ex.o(.text.HAL_UARTEx_SetRxFifoThreshold)
    HAL_UARTEx_SetTxFifoThreshold            0x080025d5   Thumb Code    70  stm32g0xx_hal_uart_ex.o(.text.HAL_UARTEx_SetTxFifoThreshold)
    HAL_UARTEx_TxFifoEmptyCallback           0x0800261b   Thumb Code     2  stm32g0xx_hal_uart_ex.o(.text.HAL_UARTEx_TxFifoEmptyCallback)
    HAL_UARTEx_WakeupCallback                0x0800261d   Thumb Code     2  stm32g0xx_hal_uart_ex.o(.text.HAL_UARTEx_WakeupCallback)
    HAL_UART_DeInit                          0x0800261f   Thumb Code    58  stm32g0xx_hal_uart.o(.text.HAL_UART_DeInit)
    HAL_UART_ErrorCallback                   0x08002659   Thumb Code     2  stm32g0xx_hal_uart.o(.text.HAL_UART_ErrorCallback)
    HAL_UART_IRQHandler                      0x0800265d   Thumb Code   644  stm32g0xx_hal_uart.o(.text.HAL_UART_IRQHandler)
    HAL_UART_Init                            0x080028f1   Thumb Code   108  stm32g0xx_hal_uart.o(.text.HAL_UART_Init)
    HAL_UART_MspDeInit                       0x0800295d   Thumb Code    44  usart.o(.text.HAL_UART_MspDeInit)
    HAL_UART_MspInit                         0x0800298d   Thumb Code   112  usart.o(.text.HAL_UART_MspInit)
    HAL_UART_Receive_IT                      0x08002a01   Thumb Code    76  stm32g0xx_hal_uart.o(.text.HAL_UART_Receive_IT)
    HAL_UART_RxCpltCallback                  0x08002a4d   Thumb Code    68  debug.o(.text.HAL_UART_RxCpltCallback)
    HAL_UART_Transmit                        0x08002aa1   Thumb Code   252  stm32g0xx_hal_uart.o(.text.HAL_UART_Transmit)
    HAL_UART_TxCpltCallback                  0x08002ba1   Thumb Code     2  stm32g0xx_hal_uart.o(.text.HAL_UART_TxCpltCallback)
    HardFault_Handler                        0x08002ba3   Thumb Code     2  stm32g0xx_it.o(.text.HardFault_Handler)
    MX_GPIO_Init                             0x08002cc9   Thumb Code   220  gpio.o(.text.MX_GPIO_Init)
    MX_IWDG_Init                             0x08002db9   Thumb Code    32  iwdg.o(.text.MX_IWDG_Init)
    MX_USART1_UART_Init                      0x08002de5   Thumb Code    96  usart.o(.text.MX_USART1_UART_Init)
    NMI_Handler                              0x08002e4d   Thumb Code     2  stm32g0xx_it.o(.text.NMI_Handler)
    PendSV_Handler                           0x08002f7d   Thumb Code     2  stm32g0xx_it.o(.text.PendSV_Handler)
    SVC_Handler                              0x08002f7f   Thumb Code     2  stm32g0xx_it.o(.text.SVC_Handler)
    SysTick_Handler                          0x08002fa9   Thumb Code     8  stm32g0xx_it.o(.text.SysTick_Handler)
    SystemClock_Config                       0x08002fb1   Thumb Code   132  main.o(.text.SystemClock_Config)
    SystemEnterLowerPower                    0x08003035   Thumb Code   472  powermanagement.o(.text.SystemEnterLowerPower)
    SystemInit                               0x080032b5   Thumb Code    12  system_stm32g0xx.o(.text.SystemInit)
    UART_AdvFeatureConfig                    0x0800330d   Thumb Code   210  stm32g0xx_hal_uart.o(.text.UART_AdvFeatureConfig)
    UART_CheckIdleState                      0x080033e1   Thumb Code   108  stm32g0xx_hal_uart.o(.text.UART_CheckIdleState)
    UART_SetConfig                           0x08003825   Thumb Code   668  stm32g0xx_hal_uart.o(.text.UART_SetConfig)
    UART_Start_Receive_IT                    0x08003b21   Thumb Code   208  stm32g0xx_hal_uart.o(.text.UART_Start_Receive_IT)
    UART_WaitOnFlagUntilTimeout              0x08003c05   Thumb Code   180  stm32g0xx_hal_uart.o(.text.UART_WaitOnFlagUntilTimeout)
    USART1_IRQHandler                        0x08003cb9   Thumb Code    12  stm32g0xx_it.o(.text.USART1_IRQHandler)
    fputc                                    0x08003d3d   Thumb Code    24  debug.o(.text.fputc)
    main                                     0x08003d55   Thumb Code   184  main.o(.text.main)
    os_time_get                              0x08003e55   Thumb Code     8  debug.o(.text.os_time_get)
    __0printf$6                              0x08003e5d   Thumb Code    24  printf6.o(i.__0printf$6)
    __1printf$6                              0x08003e5d   Thumb Code     0  printf6.o(i.__0printf$6)
    __2printf                                0x08003e5d   Thumb Code     0  printf6.o(i.__0printf$6)
    __ARM_clz                                0x08003e7d   Thumb Code    46  depilogue.o(i.__ARM_clz)
    __scatterload_copy                       0x08003eab   Thumb Code    14  handlers.o(i.__scatterload_copy)
    __scatterload_null                       0x08003eb9   Thumb Code     2  handlers.o(i.__scatterload_null)
    __scatterload_zeroinit                   0x08003ebb   Thumb Code    14  handlers.o(i.__scatterload_zeroinit)
    _is_digit                                0x08003ec9   Thumb Code    14  scanf_fp.o(i._is_digit)
    puts                                     0x08004229   Thumb Code    28  puts.o(i.puts)
    __ctype_categories                       0x08004248   Data          64  ctype_c.o(.constdata)
    AHBPrescTable                            0x08004288   Data          64  system_stm32g0xx.o(.rodata.AHBPrescTable)
    APBPrescTable                            0x080042c8   Data          32  system_stm32g0xx.o(.rodata.APBPrescTable)
    UARTPrescTable                           0x080042e8   Data          24  stm32g0xx_hal_uart.o(.rodata.UARTPrescTable)
    Region$$Table$$Base                      0x0800437c   Number         0  anon$$obj.o(Region$$Table)
    Region$$Table$$Limit                     0x0800439c   Number         0  anon$$obj.o(Region$$Table)
    __stdout                                 0x20000000   Data           4  stdout.o(.data)
    SystemCoreClock                          0x20000004   Data           4  system_stm32g0xx.o(.data.SystemCoreClock)
    dbg_level                                0x20000008   Data           4  debug.o(.data.dbg_level)
    uwTickFreq                               0x2000000c   Data           1  stm32g0xx_hal.o(.data.uwTickFreq)
    uwTickPrio                               0x20000010   Data           4  stm32g0xx_hal.o(.data.uwTickPrio)
    wakeFlag                                 0x20000014   Data          12  powermanagement.o(.data.wakeFlag)
    DataRxBuffer                             0x20000020   Data        1024  debug.o(.bss.DataRxBuffer)
    dbg_rxdata                               0x20000424   Data           1  debug.o(.bss.dbg_rxdata)
    hiwdg                                    0x20000428   Data          16  iwdg.o(.bss.hiwdg)
    huart1                                   0x20000438   Data         144  usart.o(.bss.huart1)
    uwTick                                   0x200004c8   Data           4  stm32g0xx_hal.o(.bss.uwTick)
    __initial_sp                             0x200008d0   Data           0  startup_stm32g0b1xx.o(STACK)



==============================================================================

Memory Map of the image

  Image Entry point : 0x080000bd

  Load Region LR_IROM1 (Base: 0x08000000, Size: 0x000043c0, Max: 0x00040000, ABSOLUTE)

    Execution Region ER_IROM1 (Exec base: 0x08000000, Load base: 0x08000000, Size: 0x0000439c, Max: 0x00040000, ABSOLUTE)

    Exec Addr    Load Addr    Size         Type   Attr      Idx    E Section Name        Object

    0x08000000   0x08000000   0x000000bc   Data   RO            3    RESET               startup_stm32g0b1xx.o
    0x080000bc   0x080000bc   0x00000000   Code   RO          721  * .ARM.Collect$$$$00000000  mc_p.l(entry.o)
    0x080000bc   0x080000bc   0x00000004   Code   RO          867    .ARM.Collect$$$$00000001  mc_p.l(entry2.o)
    0x080000c0   0x080000c0   0x00000004   Code   RO          870    .ARM.Collect$$$$00000004  mc_p.l(entry5.o)
    0x080000c4   0x080000c4   0x00000000   Code   RO          872    .ARM.Collect$$$$00000008  mc_p.l(entry7b.o)
    0x080000c4   0x080000c4   0x00000000   Code   RO          874    .ARM.Collect$$$$0000000A  mc_p.l(entry8b.o)
    0x080000c4   0x080000c4   0x00000008   Code   RO          875    .ARM.Collect$$$$0000000B  mc_p.l(entry9a.o)
    0x080000cc   0x080000cc   0x00000000   Code   RO          877    .ARM.Collect$$$$0000000D  mc_p.l(entry10a.o)
    0x080000cc   0x080000cc   0x00000000   Code   RO          879    .ARM.Collect$$$$0000000F  mc_p.l(entry11a.o)
    0x080000cc   0x080000cc   0x00000004   Code   RO          868    .ARM.Collect$$$$00002712  mc_p.l(entry2.o)
    0x080000d0   0x080000d0   0x0000001c   Code   RO            4    .text               startup_stm32g0b1xx.o
    0x080000ec   0x080000ec   0x00000060   Code   RO          729    .text               mc_p.l(uldiv.o)
    0x0800014c   0x0800014c   0x00000024   Code   RO          730    .text               mc_p.l(memseta.o)
    0x08000170   0x08000170   0x00000014   Code   RO          731    .text               mc_p.l(strchr.o)
    0x08000184   0x08000184   0x0000000e   Code   RO          732    .text               mc_p.l(strlen.o)
    0x08000192   0x08000192   0x00000002   PAD
    0x08000194   0x08000194   0x0000003c   Code   RO          864    .text               mc_p.l(sscanf.o)
    0x080001d0   0x080001d0   0x0000014a   Code   RO          866    .text               mc_p.l(_scanf_int.o)
    0x0800031a   0x0800031a   0x0000003e   Code   RO          884    .text               mc_p.l(uidiv_div0.o)
    0x08000358   0x08000358   0x00000020   Code   RO          887    .text               mc_p.l(llshl.o)
    0x08000378   0x08000378   0x00000022   Code   RO          888    .text               mc_p.l(llushr.o)
    0x0800039a   0x0800039a   0x0000001e   Code   RO          889    .text               mc_p.l(_chval.o)
    0x080003b8   0x080003b8   0x0000014a   Code   RO          890    .text               mc_p.l(_scanf_longlong.o)
    0x08000502   0x08000502   0x000000e8   Code   RO          891    .text               mc_p.l(_scanf_str.o)
    0x080005ea   0x080005ea   0x00000002   PAD
    0x080005ec   0x080005ec   0x00000374   Code   RO          892    .text               mc_p.l(scanf_fp.o)
    0x08000960   0x08000960   0x0000002c   Code   RO          895    .text               mc_p.l(scanf_char.o)
    0x0800098c   0x0800098c   0x00000044   Code   RO          896    .text               mc_p.l(_sgetc.o)
    0x080009d0   0x080009d0   0x00000000   Code   RO          897    .text               mc_p.l(iusefp.o)
    0x080009d0   0x080009d0   0x000000d0   Code   RO          899    .text               mf_p.l(dmul.o)
    0x08000aa0   0x08000aa0   0x000000f0   Code   RO          900    .text               mf_p.l(ddiv.o)
    0x08000b90   0x08000b90   0x00000024   Code   RO          903    .text               mc_p.l(init.o)
    0x08000bb4   0x08000bb4   0x00000030   Code   RO          904    .text               mc_p.l(llmul.o)
    0x08000be4   0x08000be4   0x0000000e   Code   RO          906    .text               mc_p.l(isspace_c.o)
    0x08000bf2   0x08000bf2   0x00000002   PAD
    0x08000bf4   0x08000bf4   0x00000338   Code   RO          907    .text               mc_p.l(_scanf.o)
    0x08000f2c   0x08000f2c   0x000000be   Code   RO          908    .text               mf_p.l(depilogue.o)
    0x08000fea   0x08000fea   0x00000002   PAD
    0x08000fec   0x08000fec   0x0000001c   Code   RO          910    .text               mf_p.l(dfltul.o)
    0x08001008   0x08001008   0x00000038   Code   RO          911    .text               mf_p.l(d2f.o)
    0x08001040   0x08001040   0x00000024   Code   RO          912    .text               mc_p.l(ctype_c.o)
    0x08001064   0x08001064   0x00000082   Code   RO          914    .text               mf_p.l(fepilogue.o)
    0x080010e6   0x080010e6   0x00000002   PAD
    0x080010e8   0x080010e8   0x00000144   Code   RO          708    .text.AT_DeviceHandle  debug.o
    0x0800122c   0x0800122c   0x0000005c   Code   RO          699    .text.CAN2_RX_CfgExtiMode  powermanagement.o
    0x08001288   0x08001288   0x0000000a   Code   RO           42    .text.EXTI2_3_IRQHandler  stm32g0xx_it.o
    0x08001292   0x08001292   0x00000012   Code   RO           44    .text.EXTI4_15_IRQHandler  stm32g0xx_it.o
    0x080012a4   0x080012a4   0x00000020   Code   RO          695    .text.EnterSleepMode  powermanagement.o
    0x080012c4   0x080012c4   0x00000008   Code   RO           10    .text.Error_Handler  main.o
    0x080012cc   0x080012cc   0x00000188   Code   RO          697    .text.ExitLowPowerMode  powermanagement.o
    0x08001454   0x08001454   0x00000068   Code   RO          238    .text.HAL_DMA_Abort  stm32g0xx_hal_dma.o
    0x080014bc   0x080014bc   0x00000070   Code   RO          240    .text.HAL_DMA_Abort_IT  stm32g0xx_hal_dma.o
    0x0800152c   0x0800152c   0x00000024   Code   RO          430    .text.HAL_Delay     stm32g0xx_hal.o
    0x08001550   0x08001550   0x000000f0   Code   RO          207    .text.HAL_GPIO_DeInit  stm32g0xx_hal_gpio.o
    0x08001640   0x08001640   0x000000f0   Code   RO           12    .text.HAL_GPIO_EXTI_Falling_Callback  main.o
    0x08001730   0x08001730   0x00000028   Code   RO          217    .text.HAL_GPIO_EXTI_IRQHandler  stm32g0xx_hal_gpio.o
    0x08001758   0x08001758   0x00000002   Code   RO          219    .text.HAL_GPIO_EXTI_Rising_Callback  stm32g0xx_hal_gpio.o
    0x0800175a   0x0800175a   0x00000002   PAD
    0x0800175c   0x0800175c   0x00000180   Code   RO          205    .text.HAL_GPIO_Init  stm32g0xx_hal_gpio.o
    0x080018dc   0x080018dc   0x00000010   Code   RO          213    .text.HAL_GPIO_TogglePin  stm32g0xx_hal_gpio.o
    0x080018ec   0x080018ec   0x00000010   Code   RO          211    .text.HAL_GPIO_WritePin  stm32g0xx_hal_gpio.o
    0x080018fc   0x080018fc   0x00000008   Code   RO          422    .text.HAL_GetTick   stm32g0xx_hal.o
    0x08001904   0x08001904   0x00000058   Code   RO           52    .text.HAL_IWDG_Init  stm32g0xx_hal_iwdg.o
    0x0800195c   0x0800195c   0x00000010   Code   RO           54    .text.HAL_IWDG_Refresh  stm32g0xx_hal_iwdg.o
    0x0800196c   0x0800196c   0x00000014   Code   RO          420    .text.HAL_IncTick   stm32g0xx_hal.o
    0x08001980   0x08001980   0x0000002c   Code   RO          410    .text.HAL_Init      stm32g0xx_hal.o
    0x080019ac   0x080019ac   0x00000048   Code   RO          412    .text.HAL_InitTick  stm32g0xx_hal.o
    0x080019f4   0x080019f4   0x00000038   Code   RO           49    .text.HAL_MspInit   stm32g0xx_hal_msp.o
    0x08001a2c   0x08001a2c   0x00000008   Code   RO          369    .text.HAL_NVIC_DisableIRQ  stm32g0xx_hal_cortex.o
    0x08001a34   0x08001a34   0x00000008   Code   RO          365    .text.HAL_NVIC_EnableIRQ  stm32g0xx_hal_cortex.o
    0x08001a3c   0x08001a3c   0x00000008   Code   RO          361    .text.HAL_NVIC_SetPriority  stm32g0xx_hal_cortex.o
    0x08001a44   0x08001a44   0x00000048   Code   RO          346    .text.HAL_PWREx_ControlVoltageScaling  stm32g0xx_hal_pwr_ex.o
    0x08001a8c   0x08001a8c   0x00000044   Code   RO          350    .text.HAL_PWREx_DisableLowPowerRunMode  stm32g0xx_hal_pwr_ex.o
    0x08001ad0   0x08001ad0   0x00000010   Code   RO          348    .text.HAL_PWREx_EnableLowPowerRunMode  stm32g0xx_hal_pwr_ex.o
    0x08001ae0   0x08001ae0   0x0000001c   Code   RO          352    .text.HAL_PWREx_EnterSHUTDOWNMode  stm32g0xx_hal_pwr_ex.o
    0x08001afc   0x08001afc   0x00000048   Code   RO          277    .text.HAL_PWR_EnterSLEEPMode  stm32g0xx_hal_pwr.o
    0x08001b44   0x08001b44   0x0000001c   Code   RO          281    .text.HAL_PWR_EnterSTANDBYMode  stm32g0xx_hal_pwr.o
    0x08001b60   0x08001b60   0x0000003c   Code   RO          279    .text.HAL_PWR_EnterSTOPMode  stm32g0xx_hal_pwr.o
    0x08001b9c   0x08001b9c   0x000002bc   Code   RO           90    .text.HAL_RCCEx_PeriphCLKConfig  stm32g0xx_hal_rcc_ex.o
    0x08001e58   0x08001e58   0x00000170   Code   RO           61    .text.HAL_RCC_ClockConfig  stm32g0xx_hal_rcc.o
    0x08001fc8   0x08001fc8   0x0000000c   Code   RO           67    .text.HAL_RCC_GetHCLKFreq  stm32g0xx_hal_rcc.o
    0x08001fd4   0x08001fd4   0x00000024   Code   RO           69    .text.HAL_RCC_GetPCLK1Freq  stm32g0xx_hal_rcc.o
    0x08001ff8   0x08001ff8   0x00000088   Code   RO           63    .text.HAL_RCC_GetSysClockFreq  stm32g0xx_hal_rcc.o
    0x08002080   0x08002080   0x0000049c   Code   RO           59    .text.HAL_RCC_OscConfig  stm32g0xx_hal_rcc.o
    0x0800251c   0x0800251c   0x0000000c   Code   RO          434    .text.HAL_ResumeTick  stm32g0xx_hal.o
    0x08002528   0x08002528   0x00000014   Code   RO          478    .text.HAL_SYSCFG_StrobeDBattpinsConfig  stm32g0xx_hal.o
    0x0800253c   0x0800253c   0x00000008   Code   RO          377    .text.HAL_SYSTICK_Config  stm32g0xx_hal_cortex.o
    0x08002544   0x08002544   0x00000010   Code   RO          432    .text.HAL_SuspendTick  stm32g0xx_hal.o
    0x08002554   0x08002554   0x00000036   Code   RO          669    .text.HAL_UARTEx_DisableFifoMode  stm32g0xx_hal_uart_ex.o
    0x0800258a   0x0800258a   0x00000002   Code   RO          599    .text.HAL_UARTEx_RxEventCallback  stm32g0xx_hal_uart.o
    0x0800258c   0x0800258c   0x00000002   Code   RO          651    .text.HAL_UARTEx_RxFifoFullCallback  stm32g0xx_hal_uart_ex.o
    0x0800258e   0x0800258e   0x00000046   Code   RO          673    .text.HAL_UARTEx_SetRxFifoThreshold  stm32g0xx_hal_uart_ex.o
    0x080025d4   0x080025d4   0x00000046   Code   RO          671    .text.HAL_UARTEx_SetTxFifoThreshold  stm32g0xx_hal_uart_ex.o
    0x0800261a   0x0800261a   0x00000002   Code   RO          653    .text.HAL_UARTEx_TxFifoEmptyCallback  stm32g0xx_hal_uart_ex.o
    0x0800261c   0x0800261c   0x00000002   Code   RO          649    .text.HAL_UARTEx_WakeupCallback  stm32g0xx_hal_uart_ex.o
    0x0800261e   0x0800261e   0x0000003a   Code   RO          521    .text.HAL_UART_DeInit  stm32g0xx_hal_uart.o
    0x08002658   0x08002658   0x00000002   Code   RO          597    .text.HAL_UART_ErrorCallback  stm32g0xx_hal_uart.o
    0x0800265a   0x0800265a   0x00000002   PAD
    0x0800265c   0x0800265c   0x00000294   Code   RO          593    .text.HAL_UART_IRQHandler  stm32g0xx_hal_uart.o
    0x080028f0   0x080028f0   0x0000006c   Code   RO          505    .text.HAL_UART_Init  stm32g0xx_hal_uart.o
    0x0800295c   0x0800295c   0x00000030   Code   RO           28    .text.HAL_UART_MspDeInit  usart.o
    0x0800298c   0x0800298c   0x00000074   Code   RO           26    .text.HAL_UART_MspInit  usart.o
    0x08002a00   0x08002a00   0x0000004c   Code   RO          541    .text.HAL_UART_Receive_IT  stm32g0xx_hal_uart.o
    0x08002a4c   0x08002a4c   0x00000054   Code   RO          706    .text.HAL_UART_RxCpltCallback  debug.o
    0x08002aa0   0x08002aa0   0x00000100   Code   RO          525    .text.HAL_UART_Transmit  stm32g0xx_hal_uart.o
    0x08002ba0   0x08002ba0   0x00000002   Code   RO          603    .text.HAL_UART_TxCpltCallback  stm32g0xx_hal_uart.o
    0x08002ba2   0x08002ba2   0x00000002   Code   RO           34    .text.HardFault_Handler  stm32g0xx_it.o
    0x08002ba4   0x08002ba4   0x00000010   Code   RO           71    .text.LL_RCC_GetAPB1Prescaler  stm32g0xx_hal_rcc.o
    0x08002bb4   0x08002bb4   0x00000114   Code   RO          693    .text.LowPowerPreProc  powermanagement.o
    0x08002cc8   0x08002cc8   0x000000f0   Code   RO           17    .text.MX_GPIO_Init  gpio.o
    0x08002db8   0x08002db8   0x0000002c   Code   RO           20    .text.MX_IWDG_Init  iwdg.o
    0x08002de4   0x08002de4   0x00000068   Code   RO           24    .text.MX_USART1_UART_Init  usart.o
    0x08002e4c   0x08002e4c   0x00000002   Code   RO           32    .text.NMI_Handler   stm32g0xx_it.o
    0x08002e4e   0x08002e4e   0x00000002   PAD
    0x08002e50   0x08002e50   0x0000012c   Code   RO          712    .text.OnCfgDebug    debug.o
    0x08002f7c   0x08002f7c   0x00000002   Code   RO           38    .text.PendSV_Handler  stm32g0xx_it.o
    0x08002f7e   0x08002f7e   0x00000002   Code   RO           36    .text.SVC_Handler   stm32g0xx_it.o
    0x08002f80   0x08002f80   0x00000028   Code   RO          379    .text.SysTick_Config  stm32g0xx_hal_cortex.o
    0x08002fa8   0x08002fa8   0x00000008   Code   RO           40    .text.SysTick_Handler  stm32g0xx_it.o
    0x08002fb0   0x08002fb0   0x00000084   Code   RO            8    .text.SystemClock_Config  main.o
    0x08003034   0x08003034   0x00000280   Code   RO          691    .text.SystemEnterLowerPower  powermanagement.o
    0x080032b4   0x080032b4   0x00000010   Code   RO          683    .text.SystemInit    system_stm32g0xx.o
    0x080032c4   0x080032c4   0x00000048   Code   RO          667    .text.UARTEx_SetNbDataToProcess  stm32g0xx_hal_uart_ex.o
    0x0800330c   0x0800330c   0x000000d2   Code   RO          511    .text.UART_AdvFeatureConfig  stm32g0xx_hal_uart.o
    0x080033de   0x080033de   0x00000002   PAD
    0x080033e0   0x080033e0   0x00000070   Code   RO          513    .text.UART_CheckIdleState  stm32g0xx_hal_uart.o
    0x08003450   0x08003450   0x00000016   Code   RO          595    .text.UART_DMAAbortOnError  stm32g0xx_hal_uart.o
    0x08003466   0x08003466   0x00000002   PAD
    0x08003468   0x08003468   0x00000030   Code   RO          565    .text.UART_EndRxTransfer  stm32g0xx_hal_uart.o
    0x08003498   0x08003498   0x0000001c   Code   RO          601    .text.UART_EndTransmit_IT  stm32g0xx_hal_uart.o
    0x080034b4   0x080034b4   0x00000078   Code   RO          637    .text.UART_RxISR_16BIT  stm32g0xx_hal_uart.o
    0x0800352c   0x0800352c   0x0000013c   Code   RO          633    .text.UART_RxISR_16BIT_FIFOEN  stm32g0xx_hal_uart.o
    0x08003668   0x08003668   0x0000007c   Code   RO          639    .text.UART_RxISR_8BIT  stm32g0xx_hal_uart.o
    0x080036e4   0x080036e4   0x00000140   Code   RO          635    .text.UART_RxISR_8BIT_FIFOEN  stm32g0xx_hal_uart.o
    0x08003824   0x08003824   0x000002fc   Code   RO          509    .text.UART_SetConfig  stm32g0xx_hal_uart.o
    0x08003b20   0x08003b20   0x000000e4   Code   RO          543    .text.UART_Start_Receive_IT  stm32g0xx_hal_uart.o
    0x08003c04   0x08003c04   0x000000b4   Code   RO          527    .text.UART_WaitOnFlagUntilTimeout  stm32g0xx_hal_uart.o
    0x08003cb8   0x08003cb8   0x0000000c   Code   RO           46    .text.USART1_IRQHandler  stm32g0xx_it.o
    0x08003cc4   0x08003cc4   0x00000020   Code   RO          371    .text.__NVIC_DisableIRQ  stm32g0xx_hal_cortex.o
    0x08003ce4   0x08003ce4   0x00000018   Code   RO          367    .text.__NVIC_EnableIRQ  stm32g0xx_hal_cortex.o
    0x08003cfc   0x08003cfc   0x00000040   Code   RO          363    .text.__NVIC_SetPriority  stm32g0xx_hal_cortex.o
    0x08003d3c   0x08003d3c   0x00000018   Code   RO          710    .text.fputc         debug.o
    0x08003d54   0x08003d54   0x00000100   Code   RO            6    .text.main          main.o
    0x08003e54   0x08003e54   0x00000008   Code   RO          704    .text.os_time_get   debug.o
    0x08003e5c   0x08003e5c   0x00000020   Code   RO          811    i.__0printf$6       mc_p.l(printf6.o)
    0x08003e7c   0x08003e7c   0x0000002e   Code   RO          909    i.__ARM_clz         mf_p.l(depilogue.o)
    0x08003eaa   0x08003eaa   0x0000000e   Code   RO          917    i.__scatterload_copy  mc_p.l(handlers.o)
    0x08003eb8   0x08003eb8   0x00000002   Code   RO          918    i.__scatterload_null  mc_p.l(handlers.o)
    0x08003eba   0x08003eba   0x0000000e   Code   RO          919    i.__scatterload_zeroinit  mc_p.l(handlers.o)
    0x08003ec8   0x08003ec8   0x0000000e   Code   RO          894    i._is_digit         mc_p.l(scanf_fp.o)
    0x08003ed6   0x08003ed6   0x00000002   PAD
    0x08003ed8   0x08003ed8   0x00000304   Code   RO          818    i._printf_core      mc_p.l(printf6.o)
    0x080041dc   0x080041dc   0x00000020   Code   RO          819    i._printf_post_padding  mc_p.l(printf6.o)
    0x080041fc   0x080041fc   0x0000002c   Code   RO          820    i._printf_pre_padding  mc_p.l(printf6.o)
    0x08004228   0x08004228   0x00000020   Code   RO          724    i.puts              mc_p.l(puts.o)
    0x08004248   0x08004248   0x00000040   Data   RO          913    .constdata          mc_p.l(ctype_c.o)
    0x08004288   0x08004288   0x00000040   Data   RO          688    .rodata.AHBPrescTable  system_stm32g0xx.o
    0x080042c8   0x080042c8   0x00000020   Data   RO          689    .rodata.APBPrescTable  system_stm32g0xx.o
    0x080042e8   0x080042e8   0x00000018   Data   RO          645    .rodata.UARTPrescTable  stm32g0xx_hal_uart.o
    0x08004300   0x08004300   0x00000010   Data   RO          681    .rodata.cst8        stm32g0xx_hal_uart_ex.o
    0x08004310   0x08004310   0x0000000e   Data   RO           14    .rodata.str1.1      main.o
    0x0800431e   0x0800431e   0x0000005d   Data   RO          702    .rodata.str1.1      powermanagement.o
    0x0800437b   0x0800437b   0x00000001   PAD
    0x0800437c   0x0800437c   0x00000020   Data   RO          916    Region$$Table       anon$$obj.o


    Execution Region RW_IRAM1 (Exec base: 0x20000000, Load base: 0x080043a0, Size: 0x000008d0, Max: 0x00024000, ABSOLUTE)

    Exec Addr    Load Addr    Size         Type   Attr      Idx    E Section Name        Object

    0x20000000   0x080043a0   0x00000004   Data   RW          881    .data               mc_p.l(stdout.o)
    0x20000004   0x080043a4   0x00000004   Data   RW          687    .data.SystemCoreClock  system_stm32g0xx.o
    0x20000008   0x080043a8   0x00000004   Data   RW          717    .data.dbg_level     debug.o
    0x2000000c   0x080043ac   0x00000001   Data   RW          481    .data.uwTickFreq    stm32g0xx_hal.o
    0x2000000d   0x080043ad   0x00000003   PAD
    0x20000010   0x080043b0   0x00000004   Data   RW          480    .data.uwTickPrio    stm32g0xx_hal.o
    0x20000014   0x080043b4   0x0000000c   Data   RW          701    .data.wakeFlag      powermanagement.o
    0x20000020        -       0x00000400   Zero   RW          714    .bss.DataRxBuffer   debug.o
    0x20000420        -       0x00000004   Zero   RW          718    .bss.count          debug.o
    0x20000424        -       0x00000001   Zero   RW          715    .bss.dbg_rxdata     debug.o
    0x20000425   0x080043c0   0x00000003   PAD
    0x20000428        -       0x00000010   Zero   RW           22    .bss.hiwdg          iwdg.o
    0x20000438        -       0x00000090   Zero   RW           30    .bss.huart1         usart.o
    0x200004c8        -       0x00000004   Zero   RW          482    .bss.uwTick         stm32g0xx_hal.o
    0x200004cc   0x080043c0   0x00000004   PAD
    0x200004d0        -       0x00000400   Zero   RW            1    STACK               startup_stm32g0b1xx.o


==============================================================================

Image component sizes


      Code (inc. data)   RO Data    RW Data    ZI Data      Debug   Object Name

       740        192          0          4       1029          0   debug.o
       240         20          0          0          0          0   gpio.o
        44         12          0          0         16          0   iwdg.o
       636        120         14          0          0          0   main.o
      1432        274         93         12          0          0   powermanagement.o
        28          8        188          0       1024          0   startup_stm32g0b1xx.o
       228         28          0          5          4          0   stm32g0xx_hal.o
       192         20          0          0          0          0   stm32g0xx_hal_cortex.o
       216          4          0          0          0          0   stm32g0xx_hal_dma.o
       698         20          0          0          0          0   stm32g0xx_hal_gpio.o
       104         12          0          0          0          0   stm32g0xx_hal_iwdg.o
        56          4          0          0          0          0   stm32g0xx_hal_msp.o
       160         12          0          0          0          0   stm32g0xx_hal_pwr.o
       184          8          0          0          0          0   stm32g0xx_hal_pwr_ex.o
      1748         88          0          0          0          0   stm32g0xx_hal_rcc.o
       700         24          0          0          0          0   stm32g0xx_hal_rcc_ex.o
      3636        178         24          0          0          0   stm32g0xx_hal_uart.o
       272          8         16          0          0          0   stm32g0xx_hal_uart_ex.o
        56          0          0          0          0          0   stm32g0xx_it.o
        16          4         96          4          0          0   system_stm32g0xx.o
       268         16          0          0        144          0   usart.o

    ----------------------------------------------------------------------
     11664       1052        464         28       2224          0   Object Totals
         0          0         32          0          0          0   (incl. Generated)
        10          0          1          3          7          0   (incl. Padding)

    ----------------------------------------------------------------------

      Code (inc. data)   RO Data    RW Data    ZI Data      Debug   Library Member Name

        30          0          0          0          0          0   _chval.o
       824         12          0          0          0          0   _scanf.o
       330          0          0          0          0          0   _scanf_int.o
       330          0          0          0          0          0   _scanf_longlong.o
       232          0          0          0          0          0   _scanf_str.o
        68          0          0          0          0          0   _sgetc.o
        36          4         64          0          0          0   ctype_c.o
         0          0          0          0          0          0   entry.o
         0          0          0          0          0          0   entry10a.o
         0          0          0          0          0          0   entry11a.o
         8          4          0          0          0          0   entry2.o
         4          0          0          0          0          0   entry5.o
         0          0          0          0          0          0   entry7b.o
         0          0          0          0          0          0   entry8b.o
         8          4          0          0          0          0   entry9a.o
        30          0          0          0          0          0   handlers.o
        36          8          0          0          0          0   init.o
        14          0          0          0          0          0   isspace_c.o
         0          0          0          0          0          0   iusefp.o
        48          0          0          0          0          0   llmul.o
        32          0          0          0          0          0   llshl.o
        34          0          0          0          0          0   llushr.o
        36          0          0          0          0          0   memseta.o
       880         12          0          0          0          0   printf6.o
        32          4          0          0          0          0   puts.o
        44          8          0          0          0          0   scanf_char.o
       898         14          0          0          0          0   scanf_fp.o
        60         10          0          0          0          0   sscanf.o
         0          0          0          4          0          0   stdout.o
        20          0          0          0          0          0   strchr.o
        14          0          0          0          0          0   strlen.o
        62          0          0          0          0          0   uidiv_div0.o
        96          0          0          0          0          0   uldiv.o
        56          0          0          0          0          0   d2f.o
       240          6          0          0          0          0   ddiv.o
       236          0          0          0          0          0   depilogue.o
        28          6          0          0          0          0   dfltul.o
       208          6          0          0          0          0   dmul.o
       130          0          0          0          0          0   fepilogue.o

    ----------------------------------------------------------------------
      5116         98         64          4          0          0   Library Totals
        12          0          0          0          0          0   (incl. Padding)

    ----------------------------------------------------------------------

      Code (inc. data)   RO Data    RW Data    ZI Data      Debug   Library Name

      4206         80         64          4          0          0   mc_p.l
       898         18          0          0          0          0   mf_p.l

    ----------------------------------------------------------------------
      5116         98         64          4          0          0   Library Totals

    ----------------------------------------------------------------------

==============================================================================


      Code (inc. data)   RO Data    RW Data    ZI Data      Debug   

     16780       1150        528         32       2224          0   Grand Totals
     16780       1150        528         32       2224          0   ELF Image Totals
     16780       1150        528         32          0          0   ROM Totals

==============================================================================

    Total RO  Size (Code + RO Data)                17308 (  16.90kB)
    Total RW  Size (RW Data + ZI Data)              2256 (   2.20kB)
    Total ROM Size (Code + RO Data + RW Data)      17340 (  16.93kB)

==============================================================================

